Certificate:
    Data:
        Version: 3 (0x2)
        Serial Number: 1 (0x1)
        Signature Algorithm: sha256WithRSAEncryption
        Issuer: C=BA, ST=RS, O=ETF, CN=CA2/emailAddress=ca2@mail.com
        Validity
            Not Before: Aug 28 20:24:20 2022 GMT
            Not After : Aug 28 20:24:20 2023 GMT
        Subject: C=BA, ST=RS, O=Elektrotehnicki fakultet, OU=UNIBL, CN=korisnik3
        Subject Public Key Info:
            Public Key Algorithm: rsaEncryption
                Public-Key: (4096 bit)
                Modulus:
                    00:be:a7:83:91:96:de:53:26:8e:3d:c2:cb:69:e1:
                    3a:08:c5:10:2b:13:3c:bf:46:80:b1:da:08:31:16:
                    05:c8:ab:1d:53:2d:e8:c6:96:f0:e1:58:a4:58:bf:
                    a0:55:0c:1b:2c:be:9d:70:9b:6a:50:a4:e9:3c:f3:
                    fd:47:1d:86:37:57:5b:79:52:a4:37:9c:78:7f:d8:
                    ad:93:1a:62:9d:43:59:0b:ea:b7:4f:ec:53:8d:84:
                    2f:16:c4:59:27:fc:b1:82:d4:42:11:3e:25:94:fa:
                    9e:68:a2:3b:7e:6e:0b:de:5d:7f:c2:0e:3f:1b:bb:
                    8b:8e:e6:73:4b:cb:c1:24:60:25:6b:7b:0b:46:9b:
                    69:4f:58:da:36:33:3d:0c:d0:04:96:c9:03:3e:4e:
                    5f:34:c2:bb:fd:89:a3:fa:3b:a5:31:29:84:6b:62:
                    26:d7:d3:4f:c5:06:e3:29:f3:26:f5:b3:1f:94:c2:
                    b5:46:ca:70:7b:37:d6:27:ae:62:c5:b7:94:69:0b:
                    11:6e:75:57:42:c5:4b:84:31:80:7e:19:43:b4:5b:
                    a7:81:94:81:39:46:0e:f0:53:f1:59:ec:15:3b:ad:
                    b3:02:97:a2:81:64:56:ff:6e:d4:da:c0:54:a2:20:
                    73:45:37:15:67:0a:dd:ef:83:18:5d:a9:20:54:0f:
                    50:56:57:61:0e:5e:e0:86:eb:55:a0:c7:21:0a:a2:
                    8d:47:3c:96:2e:03:85:73:e3:d9:b1:ed:97:2a:e4:
                    e1:df:ac:0e:aa:61:ef:4d:44:be:81:da:08:d4:00:
                    fb:4c:65:37:7b:7e:eb:2e:f1:39:94:77:91:0e:11:
                    87:45:cb:6e:3a:d6:7f:da:b7:b6:ce:b5:0d:fb:06:
                    84:37:00:8a:e9:ac:b2:16:07:9f:54:f8:e7:08:17:
                    74:87:e7:af:89:05:83:11:82:c8:84:0a:19:ac:76:
                    fc:16:11:45:53:40:22:6e:cc:a7:3f:4b:7b:70:b3:
                    59:16:91:16:c3:f4:e7:fd:c9:53:55:19:5c:3c:83:
                    56:7a:10:41:88:eb:60:dc:28:7e:d2:eb:26:b5:bb:
                    34:23:6f:ed:7b:45:8a:57:e3:a3:df:01:9c:8b:28:
                    1f:bb:ca:70:72:0f:93:af:8d:ee:25:98:29:7e:d3:
                    41:66:a0:46:64:07:17:28:2d:09:c8:df:91:0e:b6:
                    ca:80:2e:25:1d:f8:55:14:9b:22:6f:7c:06:e8:04:
                    06:21:bc:88:b3:c2:17:d8:c2:0d:78:b3:07:d7:47:
                    0d:22:87:91:de:83:b1:40:7f:ca:a8:1a:df:ec:82:
                    7c:64:6d:fa:d8:73:52:83:3a:2b:e5:4a:ba:da:09:
                    65:bd:bb
                Exponent: 65537 (0x10001)
        X509v3 extensions:
            X509v3 Basic Constraints: 
                CA:FALSE
            X509v3 Key Usage: 
                Digital Signature, Non Repudiation, Key Encipherment, Data Encipherment, Encipher Only
            Netscape Comment: 
                OpenSSL Generated Certificate
            X509v3 Subject Key Identifier: 
                6B:02:1D:D5:9D:A7:A2:16:97:B3:40:E6:04:F7:F9:1E:46:EC:47:3D
            X509v3 Authority Key Identifier: 
                37:43:20:1B:BB:63:91:9B:D3:10:69:59:83:6F:34:9E:CF:D8:80:8E
    Signature Algorithm: sha256WithRSAEncryption
    Signature Value:
        15:4c:af:38:59:90:5a:f6:44:80:f5:99:e6:82:e7:71:71:2b:
        39:93:c2:fa:28:a6:a6:d1:5b:9a:30:15:19:44:0c:3e:ee:60:
        1c:9b:21:5d:aa:3a:52:13:d2:94:51:dc:a9:75:7e:70:83:9a:
        e8:2a:75:ea:0d:bd:21:0a:a7:60:e8:16:2e:69:8f:05:55:7c:
        8f:4c:9e:f5:e8:2b:2a:7a:5c:3b:93:fd:be:20:e0:b0:ae:99:
        e4:3a:c6:8f:19:3f:da:b9:b4:29:2e:27:80:03:1b:bb:f7:ef:
        6d:32:e7:7b:a6:79:5e:62:68:fd:2e:69:7e:67:84:dd:ab:bc:
        33:85:6b:1d:65:6a:82:30:af:0f:5a:fb:98:33:aa:3f:09:ae:
        a8:ec:f3:6a:87:a9:51:de:cf:08:d5:01:72:e8:b4:fe:04:fb:
        c7:93:44:3d:b3:33:93:ae:8d:bc:b4:c6:73:40:e5:46:f9:2d:
        a2:64:44:95:97:a2:f0:34:c3:94:23:fd:fb:5f:40:fc:d8:67:
        3a:90:58:6d:30:fc:ba:a3:43:9e:bf:9a:17:c2:80:60:7d:a1:
        61:d5:e4:8f:86:fc:df:6b:dc:65:4b:3b:46:78:84:3f:49:84:
        39:0f:fd:c5:7d:e6:f1:bf:6e:23:1a:e9:12:5c:ff:6f:ac:d3:
        8e:ab:28:55
-----BEGIN CERTIFICATE-----
MIIEuTCCA6GgAwIBAgIBATANBgkqhkiG9w0BAQsFADBTMQswCQYDVQQGEwJCQTEL
MAkGA1UECAwCUlMxDDAKBgNVBAoMA0VURjEMMAoGA1UEAwwDQ0EyMRswGQYJKoZI
hvcNAQkBFgxjYTJAbWFpbC5jb20wHhcNMjIwODI4MjAyNDIwWhcNMjMwODI4MjAy
NDIwWjBhMQswCQYDVQQGEwJCQTELMAkGA1UECAwCUlMxITAfBgNVBAoMGEVsZWt0
cm90ZWhuaWNraSBmYWt1bHRldDEOMAwGA1UECwwFVU5JQkwxEjAQBgNVBAMMCWtv
cmlzbmlrMzCCAiIwDQYJKoZIhvcNAQEBBQADggIPADCCAgoCggIBAL6ng5GW3lMm
jj3Cy2nhOgjFECsTPL9GgLHaCDEWBcirHVMt6MaW8OFYpFi/oFUMGyy+nXCbalCk
6Tzz/UcdhjdXW3lSpDeceH/YrZMaYp1DWQvqt0/sU42ELxbEWSf8sYLUQhE+JZT6
nmiiO35uC95df8IOPxu7i47mc0vLwSRgJWt7C0abaU9Y2jYzPQzQBJbJAz5OXzTC
u/2Jo/o7pTEphGtiJtfTT8UG4ynzJvWzH5TCtUbKcHs31ieuYsW3lGkLEW51V0LF
S4QxgH4ZQ7Rbp4GUgTlGDvBT8VnsFTutswKXooFkVv9u1NrAVKIgc0U3FWcK3e+D
GF2pIFQPUFZXYQ5e4IbrVaDHIQqijUc8li4DhXPj2bHtlyrk4d+sDqph701EvoHa
CNQA+0xlN3t+6y7xOZR3kQ4Rh0XLbjrWf9q3ts61DfsGhDcAiumsshYHn1T45wgX
dIfnr4kFgxGCyIQKGax2/BYRRVNAIm7Mpz9Le3CzWRaRFsP05/3JU1UZXDyDVnoQ
QYjrYNwoftLrJrW7NCNv7XtFilfjo98BnIsoH7vKcHIPk6+N7iWYKX7TQWagRmQH
FygtCcjfkQ62yoAuJR34VRSbIm98BugEBiG8iLPCF9jCDXizB9dHDSKHkd6DsUB/
yqga3+yCfGRt+thzUoM6K+VKutoJZb27AgMBAAGjgYkwgYYwCQYDVR0TBAIwADAL
BgNVHQ8EBAMCAPEwLAYJYIZIAYb4QgENBB8WHU9wZW5TU0wgR2VuZXJhdGVkIENl
cnRpZmljYXRlMB0GA1UdDgQWBBRrAh3VnaeiFpezQOYE9/keRuxHPTAfBgNVHSME
GDAWgBQ3QyAbu2ORm9MQaVmDbzSez9iAjjANBgkqhkiG9w0BAQsFAAOCAQEAFUyv
OFmQWvZEgPWZ5oLncXErOZPC+iimptFbmjAVGUQMPu5gHJshXao6UhPSlFHcqXV+
cIOa6Cp16g29IQqnYOgWLmmPBVV8j0ye9egrKnpcO5P9viDgsK6Z5DrGjxk/2rm0
KS4ngAMbu/fvbTLne6Z5XmJo/S5pfmeE3au8M4VrHWVqgjCvD1r7mDOqPwmuqOzz
aoepUd7PCNUBcui0/gT7x5NEPbMzk66NvLTGc0DlRvktomRElZei8DTDlCP9+19A
/NhnOpBYbTD8uqNDnr+aF8KAYH2hYdXkj4b832vcZUs7RniEP0mEOQ/9xX3m8b9u
IxrpElz/b6zTjqsoVQ==
-----END CERTIFICATE-----
