Certificate:
    Data:
        Version: 3 (0x2)
        Serial Number: 1 (0x1)
        Signature Algorithm: sha256WithRSAEncryption
        Issuer: C=BA, ST=RS, O=ETF, CN=CA2/emailAddress=ca2@mail.com
        Validity
            Not Before: Aug 29 00:07:49 2022 GMT
            Not After : Aug 29 00:07:49 2023 GMT
        Subject: C=BA, ST=RS, O=Elektrotehnicki fakultet, OU=UNIBL, CN=korisnik2
        Subject Public Key Info:
            Public Key Algorithm: rsaEncryption
                Public-Key: (4096 bit)
                Modulus:
                    00:82:a1:ad:c3:83:40:02:6e:ca:c5:68:d1:ca:8c:
                    fd:59:40:9e:52:83:50:9e:79:b3:05:de:ab:07:5d:
                    cb:90:4e:c6:b6:ae:79:ff:c9:40:96:d8:c6:fa:5d:
                    83:36:75:64:79:79:25:cd:fd:b8:76:58:9a:66:d4:
                    a4:2f:5d:f4:10:78:d0:c3:78:02:83:af:bb:49:02:
                    57:cc:25:e7:51:0e:39:bf:8d:98:89:04:b9:03:d9:
                    56:ec:ed:22:01:cd:d0:18:40:44:ba:d0:c3:75:32:
                    74:c1:d7:aa:69:ae:61:77:7a:94:07:74:2c:e6:1f:
                    af:40:01:6e:96:ab:f2:00:9d:9c:6b:1e:2c:a1:ad:
                    b1:73:86:4f:63:75:29:a3:66:c0:a2:5f:74:c9:7a:
                    3a:a3:4d:44:3f:c0:12:16:4e:aa:59:20:e9:31:54:
                    8e:21:ce:7b:73:9d:ce:24:4b:f4:40:8c:fc:0a:c6:
                    11:3d:e8:53:75:bb:40:34:72:28:c0:41:a6:6a:d4:
                    ac:36:39:eb:18:cb:6c:30:5f:e7:73:c1:25:ac:b7:
                    82:96:7a:05:ba:b6:55:72:48:e3:dc:f3:68:2f:39:
                    bd:b0:63:1d:e6:58:ec:73:a3:e5:03:4e:18:20:fc:
                    b4:bf:5d:99:52:93:52:20:6c:f9:b9:60:09:88:d3:
                    d2:da:b5:a9:19:0d:dc:1e:ca:f5:52:f9:1b:11:fe:
                    e0:a8:d6:fb:4d:37:5d:4d:90:8f:53:f5:ce:a6:4f:
                    c1:8d:9e:a5:02:6f:d8:75:61:76:d7:b3:a9:df:c7:
                    30:28:ae:e6:61:dc:2a:78:ae:1e:b6:a6:6b:db:01:
                    d1:d5:26:37:20:5e:ca:a3:2d:b9:fe:f0:5b:60:46:
                    6c:57:4e:43:df:2e:59:15:32:0b:93:79:f1:83:39:
                    09:d0:3a:8b:aa:31:34:ff:c2:3a:07:a8:23:91:4f:
                    26:9c:6e:37:d9:f7:56:87:3f:7e:aa:57:32:a2:16:
                    1d:ea:aa:6e:1d:3a:b3:3c:14:79:e0:0c:55:40:67:
                    90:ac:b2:f2:7f:d9:03:86:12:e6:9e:31:44:df:74:
                    c5:52:1e:21:a9:78:94:ad:d1:4d:5d:16:15:69:1a:
                    34:7b:44:0b:ea:d9:a6:92:0f:a1:b5:9a:3b:db:e2:
                    d9:c5:c3:7f:2d:fe:41:56:7b:ab:f5:8a:fa:21:70:
                    10:09:6f:ce:d4:6d:0d:10:99:2c:fc:aa:d6:15:c5:
                    d7:38:79:ff:30:36:9c:1d:a6:f9:e7:1e:f3:e5:d2:
                    ff:6e:c8:f1:e8:0d:62:fb:96:aa:a9:f1:53:4d:d3:
                    96:42:56:b4:de:2a:ae:12:6a:2f:4d:e6:2c:ec:bf:
                    15:5d:b3
                Exponent: 65537 (0x10001)
        X509v3 extensions:
            X509v3 Basic Constraints: 
                CA:FALSE
            X509v3 Key Usage: 
                Digital Signature, Non Repudiation, Key Encipherment, Data Encipherment, Encipher Only
            Netscape Comment: 
                OpenSSL Generated Certificate
            X509v3 Subject Key Identifier: 
                CE:E6:88:D4:0B:DC:CC:E5:87:9C:4B:07:23:9B:02:F7:B1:26:A3:60
            X509v3 Authority Key Identifier: 
                37:43:20:1B:BB:63:91:9B:D3:10:69:59:83:6F:34:9E:CF:D8:80:8E
    Signature Algorithm: sha256WithRSAEncryption
    Signature Value:
        2d:91:ca:c4:18:7e:a0:ad:bb:00:02:31:9c:c7:c4:a1:2d:dd:
        ad:c8:49:43:16:b3:76:ae:ff:55:74:41:ad:f6:33:b0:38:dd:
        75:29:ea:56:45:71:64:1a:ee:c4:32:6e:07:69:dd:eb:5d:28:
        9b:52:ca:17:eb:63:de:d7:e3:9a:23:2f:05:03:d4:0f:9b:b8:
        37:15:47:12:f9:d0:8f:e0:4e:ac:e0:e6:5b:0c:dc:f4:8f:d2:
        c0:f5:5d:80:81:ed:b9:00:1e:f0:b0:b7:10:7d:61:4a:a0:b4:
        89:f3:70:6a:b5:42:4d:09:88:3b:aa:5e:d5:b6:c9:b0:74:58:
        ac:cb:de:75:3e:59:82:4b:05:0a:cd:7f:7a:b7:67:a1:4f:cf:
        14:11:c0:31:ae:7c:0a:8b:b6:5d:fd:35:f8:c6:74:fe:29:29:
        59:8b:e9:e9:c1:1d:08:57:23:86:9b:b3:26:2f:29:8a:b4:4d:
        c3:15:e0:cf:c4:f2:3d:45:fe:97:b3:42:cd:34:6b:3a:b0:3a:
        93:55:28:8f:0f:0d:23:be:7d:00:04:cc:f3:b1:69:00:db:a0:
        8e:6b:b7:67:6a:59:cb:49:8a:12:c8:dd:59:1e:9f:a3:ac:c3:
        05:41:6f:65:39:37:87:fa:9c:9c:e4:da:89:79:4a:eb:88:e3:
        8e:af:3e:9f
-----BEGIN CERTIFICATE-----
MIIEuTCCA6GgAwIBAgIBATANBgkqhkiG9w0BAQsFADBTMQswCQYDVQQGEwJCQTEL
MAkGA1UECAwCUlMxDDAKBgNVBAoMA0VURjEMMAoGA1UEAwwDQ0EyMRswGQYJKoZI
hvcNAQkBFgxjYTJAbWFpbC5jb20wHhcNMjIwODI5MDAwNzQ5WhcNMjMwODI5MDAw
NzQ5WjBhMQswCQYDVQQGEwJCQTELMAkGA1UECAwCUlMxITAfBgNVBAoMGEVsZWt0
cm90ZWhuaWNraSBmYWt1bHRldDEOMAwGA1UECwwFVU5JQkwxEjAQBgNVBAMMCWtv
cmlzbmlrMjCCAiIwDQYJKoZIhvcNAQEBBQADggIPADCCAgoCggIBAIKhrcODQAJu
ysVo0cqM/VlAnlKDUJ55swXeqwddy5BOxrauef/JQJbYxvpdgzZ1ZHl5Jc39uHZY
mmbUpC9d9BB40MN4AoOvu0kCV8wl51EOOb+NmIkEuQPZVuztIgHN0BhARLrQw3Uy
dMHXqmmuYXd6lAd0LOYfr0ABbpar8gCdnGseLKGtsXOGT2N1KaNmwKJfdMl6OqNN
RD/AEhZOqlkg6TFUjiHOe3OdziRL9ECM/ArGET3oU3W7QDRyKMBBpmrUrDY56xjL
bDBf53PBJay3gpZ6Bbq2VXJI49zzaC85vbBjHeZY7HOj5QNOGCD8tL9dmVKTUiBs
+blgCYjT0tq1qRkN3B7K9VL5GxH+4KjW+003XU2Qj1P1zqZPwY2epQJv2HVhdtez
qd/HMCiu5mHcKniuHrama9sB0dUmNyBeyqMtuf7wW2BGbFdOQ98uWRUyC5N58YM5
CdA6i6oxNP/COgeoI5FPJpxuN9n3Voc/fqpXMqIWHeqqbh06szwUeeAMVUBnkKyy
8n/ZA4YS5p4xRN90xVIeIal4lK3RTV0WFWkaNHtEC+rZppIPobWaO9vi2cXDfy3+
QVZ7q/WK+iFwEAlvztRtDRCZLPyq1hXF1zh5/zA2nB2m+ece8+XS/27I8egNYvuW
qqnxU03TlkJWtN4qrhJqL03mLOy/FV2zAgMBAAGjgYkwgYYwCQYDVR0TBAIwADAL
BgNVHQ8EBAMCAPEwLAYJYIZIAYb4QgENBB8WHU9wZW5TU0wgR2VuZXJhdGVkIENl
cnRpZmljYXRlMB0GA1UdDgQWBBTO5ojUC9zM5YecSwcjmwL3sSajYDAfBgNVHSME
GDAWgBQ3QyAbu2ORm9MQaVmDbzSez9iAjjANBgkqhkiG9w0BAQsFAAOCAQEALZHK
xBh+oK27AAIxnMfEoS3drchJQxazdq7/VXRBrfYzsDjddSnqVkVxZBruxDJuB2nd
610om1LKF+tj3tfjmiMvBQPUD5u4NxVHEvnQj+BOrODmWwzc9I/SwPVdgIHtuQAe
8LC3EH1hSqC0ifNwarVCTQmIO6pe1bbJsHRYrMvedT5ZgksFCs1/erdnoU/PFBHA
Ma58Cou2Xf01+MZ0/ikpWYvp6cEdCFcjhpuzJi8pirRNwxXgz8TyPUX+l7NCzTRr
OrA6k1Uojw8NI759AATM87FpANugjmu3Z2pZy0mKEsjdWR6fo6zDBUFvZTk3h/qc
nOTaiXlK64jjjq8+nw==
-----END CERTIFICATE-----
