Certificate:
    Data:
        Version: 3 (0x2)
        Serial Number: 1 (0x1)
        Signature Algorithm: sha256WithRSAEncryption
        Issuer: C=BA, ST=RS, O=ETF, CN=CA2/emailAddress=ca2@mail.com
        Validity
            Not Before: Aug 28 11:47:14 2022 GMT
            Not After : Aug 28 11:47:14 2023 GMT
        Subject: C=BA, ST=RS, O=Elektrotehnicki fakultet, OU=UNIBL, CN=korisnik1
        Subject Public Key Info:
            Public Key Algorithm: rsaEncryption
                Public-Key: (4096 bit)
                Modulus:
                    00:d3:07:71:38:54:9d:e1:c5:f2:37:95:a4:ca:18:
                    4a:09:2f:2c:82:e3:6d:41:17:9b:71:8e:53:af:b5:
                    ad:3b:b8:8b:9d:4d:80:6b:a5:66:ae:66:1b:0a:59:
                    5a:2d:eb:41:52:d3:1d:f1:17:26:2c:e1:d4:e7:f4:
                    22:59:72:33:92:12:fa:80:94:8c:5f:f5:40:2b:ca:
                    27:d4:38:fa:21:bc:7d:6b:41:28:ae:dc:ca:fd:0f:
                    bf:65:e9:07:76:e9:08:db:de:8e:d0:35:8c:a4:94:
                    88:6d:2b:a1:8f:88:5e:b4:72:d2:0d:2d:d8:78:3a:
                    17:15:e3:3c:c2:78:28:0b:cf:eb:e8:ff:15:40:45:
                    83:b2:09:f8:c8:60:c9:aa:05:91:86:db:00:e9:13:
                    48:a8:5c:a8:88:a4:3f:05:40:ae:3f:d8:7e:64:9a:
                    f7:0a:92:19:01:99:76:b1:e1:41:ad:73:91:c8:e4:
                    c2:74:b5:e6:e3:ee:db:0c:0d:f8:a9:76:da:34:0e:
                    8b:58:42:8b:03:f4:4e:f6:2a:a4:ce:c3:cd:e4:d2:
                    48:64:34:2d:5a:a4:99:35:2a:0b:45:20:b4:a2:a7:
                    d7:6f:03:57:2e:78:95:e8:d7:20:1e:9a:ce:b6:f5:
                    b2:01:6c:a3:67:c8:60:63:98:dc:b4:b5:ca:1a:ba:
                    51:66:48:17:7d:ab:0b:f2:b0:3f:33:62:fc:05:4a:
                    7c:d2:ea:72:8f:85:91:52:05:c9:7b:77:9c:65:b1:
                    58:d5:b8:d3:9a:13:64:b2:0b:0e:c1:23:c8:cf:9a:
                    7a:dd:e9:d6:6e:6f:dc:b8:dd:60:c8:99:a9:4b:be:
                    75:eb:29:f5:67:7b:71:9e:ef:d4:53:d1:08:96:c6:
                    cc:a3:f5:c7:cb:5d:6f:5a:69:9a:50:75:43:2e:85:
                    b9:14:c4:9d:7d:a4:3e:00:3c:c4:55:ca:a1:d5:50:
                    db:ec:e6:10:53:bd:32:27:72:08:48:35:32:f1:a7:
                    c8:04:c4:65:14:07:92:2b:67:c1:f2:4b:2a:fe:42:
                    dc:cb:56:37:e1:89:fc:42:c8:6f:5c:d2:3f:a3:73:
                    c1:8f:09:1a:07:96:7b:a1:ec:5c:10:d2:3b:17:98:
                    d5:e1:87:af:dd:a2:0b:ec:ca:c1:71:a9:f9:bf:fe:
                    b7:28:3c:cd:84:dc:ca:f2:fa:d6:12:f7:0a:b7:8f:
                    64:91:01:8e:cf:5d:9e:4a:b6:a3:b1:e5:b9:3b:66:
                    f6:ee:7b:6f:06:6a:17:53:c5:51:8e:d0:fd:ac:70:
                    b8:ef:73:9e:c1:8d:43:1d:6f:27:77:dd:dc:19:c3:
                    b8:05:39:41:0e:8d:3c:a7:e5:5e:2a:19:2c:6a:d8:
                    f4:f0:53
                Exponent: 65537 (0x10001)
        X509v3 extensions:
            X509v3 Basic Constraints: 
                CA:FALSE
            X509v3 Key Usage: 
                Digital Signature, Non Repudiation, Key Encipherment, Data Encipherment, Encipher Only
            Netscape Comment: 
                OpenSSL Generated Certificate
            X509v3 Subject Key Identifier: 
                22:FB:FF:0F:C0:D9:D8:0D:39:0B:B9:B4:9E:EB:ED:FD:D2:47:17:0C
            X509v3 Authority Key Identifier: 
                37:43:20:1B:BB:63:91:9B:D3:10:69:59:83:6F:34:9E:CF:D8:80:8E
    Signature Algorithm: sha256WithRSAEncryption
    Signature Value:
        0d:ed:7a:24:93:d2:83:61:67:45:a8:60:21:b8:b9:f1:69:fd:
        aa:ff:ae:1b:13:2f:53:e0:45:74:3c:80:2d:d2:7d:11:a5:35:
        68:89:09:e5:c2:bb:47:bd:26:14:1b:53:24:3e:b3:3b:75:09:
        8a:03:a4:04:bc:13:d7:47:bd:6b:f9:0e:30:95:e9:1a:c5:4c:
        ed:78:44:94:b7:5b:c5:ba:a8:5e:fb:03:b0:9b:98:b5:ad:10:
        7f:06:6f:02:56:f5:1a:55:2b:97:5c:ed:3e:a5:e0:8c:6f:3e:
        df:d1:10:a0:33:5a:99:4f:e4:59:ac:d3:5f:d4:a9:ec:9e:77:
        da:0b:6e:03:1a:fc:5b:8d:66:6a:8e:59:86:12:44:9f:06:da:
        ac:ff:13:64:61:82:13:09:eb:c3:79:2f:4a:a2:23:58:cf:b1:
        a4:15:e1:c3:9b:27:26:52:42:0c:e0:29:1a:0b:a7:5d:d6:b0:
        0d:c6:c7:fa:00:69:f8:3f:b0:34:e4:1f:40:7a:07:27:1a:ab:
        87:96:82:6b:17:da:21:4a:20:01:81:d3:73:94:1f:a1:21:04:
        63:ba:1a:04:bd:c0:0e:65:4d:f3:89:b2:aa:79:db:f3:04:c2:
        89:58:93:45:fe:4f:10:1b:bc:69:ff:ad:37:36:3e:ca:12:b7:
        5d:df:32:34
-----BEGIN CERTIFICATE-----
MIIEuTCCA6GgAwIBAgIBATANBgkqhkiG9w0BAQsFADBTMQswCQYDVQQGEwJCQTEL
MAkGA1UECAwCUlMxDDAKBgNVBAoMA0VURjEMMAoGA1UEAwwDQ0EyMRswGQYJKoZI
hvcNAQkBFgxjYTJAbWFpbC5jb20wHhcNMjIwODI4MTE0NzE0WhcNMjMwODI4MTE0
NzE0WjBhMQswCQYDVQQGEwJCQTELMAkGA1UECAwCUlMxITAfBgNVBAoMGEVsZWt0
cm90ZWhuaWNraSBmYWt1bHRldDEOMAwGA1UECwwFVU5JQkwxEjAQBgNVBAMMCWtv
cmlzbmlrMTCCAiIwDQYJKoZIhvcNAQEBBQADggIPADCCAgoCggIBANMHcThUneHF
8jeVpMoYSgkvLILjbUEXm3GOU6+1rTu4i51NgGulZq5mGwpZWi3rQVLTHfEXJizh
1Of0IllyM5IS+oCUjF/1QCvKJ9Q4+iG8fWtBKK7cyv0Pv2XpB3bpCNvejtA1jKSU
iG0roY+IXrRy0g0t2Hg6FxXjPMJ4KAvP6+j/FUBFg7IJ+MhgyaoFkYbbAOkTSKhc
qIikPwVArj/YfmSa9wqSGQGZdrHhQa1zkcjkwnS15uPu2wwN+Kl22jQOi1hCiwP0
TvYqpM7DzeTSSGQ0LVqkmTUqC0UgtKKn128DVy54lejXIB6azrb1sgFso2fIYGOY
3LS1yhq6UWZIF32rC/KwPzNi/AVKfNLqco+FkVIFyXt3nGWxWNW405oTZLILDsEj
yM+aet3p1m5v3LjdYMiZqUu+desp9Wd7cZ7v1FPRCJbGzKP1x8tdb1ppmlB1Qy6F
uRTEnX2kPgA8xFXKodVQ2+zmEFO9MidyCEg1MvGnyATEZRQHkitnwfJLKv5C3MtW
N+GJ/ELIb1zSP6NzwY8JGgeWe6HsXBDSOxeY1eGHr92iC+zKwXGp+b/+tyg8zYTc
yvL61hL3CrePZJEBjs9dnkq2o7HluTtm9u57bwZqF1PFUY7Q/axwuO9znsGNQx1v
J3fd3BnDuAU5QQ6NPKflXioZLGrY9PBTAgMBAAGjgYkwgYYwCQYDVR0TBAIwADAL
BgNVHQ8EBAMCAPEwLAYJYIZIAYb4QgENBB8WHU9wZW5TU0wgR2VuZXJhdGVkIENl
cnRpZmljYXRlMB0GA1UdDgQWBBQi+/8PwNnYDTkLubSe6+390kcXDDAfBgNVHSME
GDAWgBQ3QyAbu2ORm9MQaVmDbzSez9iAjjANBgkqhkiG9w0BAQsFAAOCAQEADe16
JJPSg2FnRahgIbi58Wn9qv+uGxMvU+BFdDyALdJ9EaU1aIkJ5cK7R70mFBtTJD6z
O3UJigOkBLwT10e9a/kOMJXpGsVM7XhElLdbxbqoXvsDsJuYta0QfwZvAlb1GlUr
l1ztPqXgjG8+39EQoDNamU/kWazTX9Sp7J532gtuAxr8W41mao5ZhhJEnwbarP8T
ZGGCEwnrw3kvSqIjWM+xpBXhw5snJlJCDOApGgunXdawDcbH+gBp+D+wNOQfQHoH
Jxqrh5aCaxfaIUogAYHTc5QfoSEEY7oaBL3ADmVN84myqnnb8wTCiViTRf5PEBu8
af+tNzY+yhK3Xd8yNA==
-----END CERTIFICATE-----
