Certificate:
    Data:
        Version: 3 (0x2)
        Serial Number: 2 (0x2)
        Signature Algorithm: sha256WithRSAEncryption
        Issuer: C=BA, ST=RS, O=ETF, CN=CA2/emailAddress=ca2@mail.com
        Validity
            Not Before: Aug 29 00:08:08 2022 GMT
            Not After : Aug 29 00:08:08 2023 GMT
        Subject: C=BA, ST=RS, O=Elektrotehnicki fakultet, OU=UNIBL, CN=korisnik3
        Subject Public Key Info:
            Public Key Algorithm: rsaEncryption
                Public-Key: (4096 bit)
                Modulus:
                    00:bc:be:4b:6a:f8:4b:e5:ad:ec:02:2f:7f:66:67:
                    17:dc:21:ef:f5:c7:33:c0:39:40:70:cb:64:52:db:
                    dc:e9:c0:0d:2c:19:80:80:77:d3:c4:c6:24:3c:73:
                    2c:6f:88:24:f8:fb:51:d1:cc:ad:e8:fd:3d:d2:d7:
                    2c:3a:36:02:3a:d5:9d:42:70:17:48:38:a7:79:2f:
                    c5:64:d3:e9:66:fa:4c:e8:7c:72:ec:03:5e:c8:5b:
                    5e:3f:ce:11:01:de:0f:9a:de:3f:9e:80:31:66:86:
                    a9:d2:10:70:59:1a:4e:9d:be:a8:55:aa:e1:ee:55:
                    91:84:33:33:17:95:6c:49:4d:f0:bc:6b:9e:4d:6a:
                    3b:e6:91:67:4c:b7:f1:f2:5b:d0:d4:e6:53:2e:36:
                    3d:0a:b3:73:b9:04:03:6d:2d:db:c4:5a:8c:ef:6b:
                    fb:df:18:99:e0:b8:7c:3d:98:90:b5:7e:76:11:03:
                    4a:61:01:85:c9:43:74:5c:be:50:39:2a:49:46:9c:
                    70:3d:b4:d4:4a:fe:b7:a2:07:0b:37:b6:a7:84:11:
                    d0:d2:10:49:d1:c9:02:fc:d1:dd:15:c7:50:f1:34:
                    25:25:07:75:da:e7:c4:53:b4:f3:fb:64:68:f2:27:
                    e0:f3:9a:b0:e2:f0:1b:06:26:c8:1f:95:54:ad:4f:
                    0c:3f:3e:10:a1:64:c8:46:09:7f:42:13:f1:c5:60:
                    27:f7:5b:a0:1a:ab:6a:63:bd:0f:df:84:03:2b:6e:
                    91:72:ad:48:c5:6c:cb:61:c0:05:50:e2:f9:c0:6d:
                    1f:3a:01:70:bc:7c:40:2e:cf:e5:6d:18:34:62:16:
                    7f:8e:f4:db:77:cc:cd:36:60:ba:fe:a7:29:d3:01:
                    52:dd:9b:fd:62:49:56:6a:59:12:03:c1:e1:1d:ae:
                    cc:2f:7f:06:19:c4:43:41:24:38:38:04:0a:da:b8:
                    18:67:9e:cf:b0:88:9c:ac:5e:36:47:ba:3b:6d:4c:
                    a4:3a:1c:b1:5d:8f:c8:c1:c2:99:86:f0:66:1f:50:
                    12:e3:cb:95:37:7c:01:b8:6f:17:01:21:f4:e4:53:
                    c5:4e:4a:55:45:ea:57:2e:b8:64:83:49:81:56:cb:
                    de:21:e7:5b:3a:d7:04:ee:48:89:ee:30:36:fa:96:
                    18:58:1e:c0:fd:fd:da:6b:7a:d7:7a:ad:7f:c7:a1:
                    50:e1:a9:59:dc:ce:73:7b:5f:f3:07:89:2d:82:f7:
                    a9:26:55:95:ef:ac:a2:fd:10:c4:4c:fe:77:ec:f3:
                    05:08:c9:01:ae:23:8b:a2:2d:f0:1c:db:63:01:de:
                    7f:e1:9f:e3:82:50:9f:fc:34:73:9d:2a:d2:e3:51:
                    20:e4:6d
                Exponent: 65537 (0x10001)
        X509v3 extensions:
            X509v3 Basic Constraints: 
                CA:FALSE
            X509v3 Key Usage: 
                Digital Signature, Non Repudiation, Key Encipherment, Data Encipherment, Encipher Only
            Netscape Comment: 
                OpenSSL Generated Certificate
            X509v3 Subject Key Identifier: 
                AF:D9:C0:C9:95:FF:A8:CB:68:FD:6C:5A:D7:29:E9:D4:4E:FE:70:65
            X509v3 Authority Key Identifier: 
                37:43:20:1B:BB:63:91:9B:D3:10:69:59:83:6F:34:9E:CF:D8:80:8E
    Signature Algorithm: sha256WithRSAEncryption
    Signature Value:
        3c:e5:24:76:0a:df:39:ac:72:1d:6f:ad:c2:b1:0a:b7:b3:91:
        3d:b8:c3:ec:08:8d:ab:88:60:97:50:7a:a8:e1:57:6b:a3:ff:
        e8:06:04:be:aa:21:a2:21:58:4e:be:d5:d4:00:ac:11:09:be:
        a4:61:76:58:4b:9e:b5:c4:26:3f:4c:75:fa:1a:e4:47:a6:96:
        f9:b8:9d:94:0f:1e:12:8f:fb:b3:0b:6e:14:36:8b:ff:a1:90:
        ac:68:57:33:f1:2b:d8:84:29:c6:d7:41:f7:85:a6:9d:dd:9d:
        de:10:48:32:f5:c4:0e:3f:f4:30:81:b9:af:45:cd:db:35:e8:
        03:1d:a2:b0:b1:1d:1d:9b:1c:b0:15:1a:86:5c:53:9a:81:18:
        bf:4b:18:e9:cf:3f:e9:cf:e2:c4:53:73:8e:c1:60:b2:fb:f8:
        4f:3f:53:a8:64:e5:e9:c1:35:1d:e5:ca:01:9d:88:9b:d7:67:
        31:98:77:15:1d:70:14:7e:78:de:d3:c9:25:9d:27:a2:c5:6a:
        c7:9f:f7:49:93:5d:72:5f:c4:ef:32:98:fe:44:1a:c3:7b:d5:
        39:c5:0d:ff:f7:49:be:df:ef:15:c8:d1:e9:41:3a:9e:25:54:
        80:f9:0a:14:b1:7c:ad:fa:44:36:a3:f3:0f:4c:5e:8f:03:f3:
        dd:21:25:c7
-----BEGIN CERTIFICATE-----
MIIEuTCCA6GgAwIBAgIBAjANBgkqhkiG9w0BAQsFADBTMQswCQYDVQQGEwJCQTEL
MAkGA1UECAwCUlMxDDAKBgNVBAoMA0VURjEMMAoGA1UEAwwDQ0EyMRswGQYJKoZI
hvcNAQkBFgxjYTJAbWFpbC5jb20wHhcNMjIwODI5MDAwODA4WhcNMjMwODI5MDAw
ODA4WjBhMQswCQYDVQQGEwJCQTELMAkGA1UECAwCUlMxITAfBgNVBAoMGEVsZWt0
cm90ZWhuaWNraSBmYWt1bHRldDEOMAwGA1UECwwFVU5JQkwxEjAQBgNVBAMMCWtv
cmlzbmlrMzCCAiIwDQYJKoZIhvcNAQEBBQADggIPADCCAgoCggIBALy+S2r4S+Wt
7AIvf2ZnF9wh7/XHM8A5QHDLZFLb3OnADSwZgIB308TGJDxzLG+IJPj7UdHMrej9
PdLXLDo2AjrVnUJwF0g4p3kvxWTT6Wb6TOh8cuwDXshbXj/OEQHeD5reP56AMWaG
qdIQcFkaTp2+qFWq4e5VkYQzMxeVbElN8Lxrnk1qO+aRZ0y38fJb0NTmUy42PQqz
c7kEA20t28RajO9r+98YmeC4fD2YkLV+dhEDSmEBhclDdFy+UDkqSUaccD201Er+
t6IHCze2p4QR0NIQSdHJAvzR3RXHUPE0JSUHddrnxFO08/tkaPIn4POasOLwGwYm
yB+VVK1PDD8+EKFkyEYJf0IT8cVgJ/dboBqramO9D9+EAytukXKtSMVsy2HABVDi
+cBtHzoBcLx8QC7P5W0YNGIWf47023fMzTZguv6nKdMBUt2b/WJJVmpZEgPB4R2u
zC9/BhnEQ0EkODgECtq4GGeez7CInKxeNke6O21MpDocsV2PyMHCmYbwZh9QEuPL
lTd8AbhvFwEh9ORTxU5KVUXqVy64ZINJgVbL3iHnWzrXBO5Iie4wNvqWGFgewP39
2mt613qtf8ehUOGpWdzOc3tf8weJLYL3qSZVle+sov0QxEz+d+zzBQjJAa4ji6It
8BzbYwHef+Gf44JQn/w0c50q0uNRIORtAgMBAAGjgYkwgYYwCQYDVR0TBAIwADAL
BgNVHQ8EBAMCAPEwLAYJYIZIAYb4QgENBB8WHU9wZW5TU0wgR2VuZXJhdGVkIENl
cnRpZmljYXRlMB0GA1UdDgQWBBSv2cDJlf+oy2j9bFrXKenUTv5wZTAfBgNVHSME
GDAWgBQ3QyAbu2ORm9MQaVmDbzSez9iAjjANBgkqhkiG9w0BAQsFAAOCAQEAPOUk
dgrfOaxyHW+twrEKt7ORPbjD7AiNq4hgl1B6qOFXa6P/6AYEvqohoiFYTr7V1ACs
EQm+pGF2WEuetcQmP0x1+hrkR6aW+bidlA8eEo/7swtuFDaL/6GQrGhXM/Er2IQp
xtdB94Wmnd2d3hBIMvXEDj/0MIG5r0XN2zXoAx2isLEdHZscsBUahlxTmoEYv0sY
6c8/6c/ixFNzjsFgsvv4Tz9TqGTl6cE1HeXKAZ2Im9dnMZh3FR1wFH543tPJJZ0n
osVqx5/3SZNdcl/E7zKY/kQaw3vVOcUN//dJvt/vFcjR6UE6niVUgPkKFLF8rfpE
NqPzD0xejwPz3SElxw==
-----END CERTIFICATE-----
