Certificate:
    Data:
        Version: 3 (0x2)
        Serial Number: 2 (0x2)
        Signature Algorithm: sha256WithRSAEncryption
        Issuer: C=BA, ST=RS, O=ETF, CN=CA2/emailAddress=ca2@mail.com
        Validity
            Not Before: Aug 28 20:24:31 2022 GMT
            Not After : Aug 28 20:24:31 2023 GMT
        Subject: C=BA, ST=RS, O=Elektrotehnicki fakultet, OU=UNIBL, CN=korisnik4
        Subject Public Key Info:
            Public Key Algorithm: rsaEncryption
                Public-Key: (4096 bit)
                Modulus:
                    00:f3:a5:75:32:d1:09:a9:92:82:14:85:a1:2d:3a:
                    de:e5:9b:da:a1:97:66:0f:61:71:22:d1:7b:bf:97:
                    7e:4f:b5:a7:de:59:12:18:db:80:be:7a:8a:7d:f5:
                    e1:72:35:61:ad:04:73:c3:7a:11:bb:55:bf:a3:99:
                    61:fa:1e:00:c0:09:6d:c8:e7:43:ae:fa:2b:91:38:
                    97:de:02:b3:18:a8:31:6b:6d:61:39:07:29:6b:8d:
                    f8:16:80:0a:2b:0c:3f:b3:24:2f:bc:05:36:4c:48:
                    cf:8a:0e:31:ce:0f:c5:1a:ed:42:e6:66:04:59:00:
                    c7:5e:28:da:8d:a8:94:e2:8d:d8:65:6b:d8:30:bf:
                    1c:a9:11:c8:e4:cb:16:87:b6:39:d0:8a:e3:51:c0:
                    32:e3:b9:fd:0a:e0:ed:6d:55:f7:e5:bd:e6:70:69:
                    48:d6:37:b1:b0:f4:7e:48:fe:a1:ce:41:fc:c7:6e:
                    f7:0f:c2:fc:2e:ec:66:40:8d:58:7a:27:89:4f:f4:
                    7e:ce:75:93:4d:27:c0:9a:c2:41:f4:62:ae:04:9f:
                    d8:f8:62:01:16:a5:63:47:0e:4d:0e:ab:bb:7a:36:
                    13:c6:78:4e:c5:d5:01:1b:91:d3:a9:50:54:22:8c:
                    f9:80:12:55:09:78:2d:e6:3a:96:1b:fb:81:5c:94:
                    2e:f4:23:e9:ea:5a:2e:6d:7a:3e:61:a2:35:31:9f:
                    f2:cd:a0:28:34:c0:36:a9:3f:bf:40:c4:45:47:dc:
                    bf:01:30:42:83:fa:19:24:fc:23:50:ad:78:5a:57:
                    77:4d:e4:76:f9:af:fc:cc:93:9b:52:b6:d1:aa:8d:
                    cc:1d:38:45:fc:a5:62:ec:50:56:7e:89:95:27:aa:
                    0d:03:8a:af:d0:05:5b:1e:56:bc:3f:f3:98:29:a7:
                    9b:81:2e:40:92:02:f1:07:fa:a7:b9:de:bb:fa:39:
                    c9:01:a6:8c:19:7a:d5:72:5a:f0:97:bc:54:de:da:
                    0c:58:4b:51:49:f6:e4:ef:37:fc:bd:27:7a:39:56:
                    f8:d8:80:86:3e:de:22:62:3e:65:7f:d8:b5:77:f7:
                    57:7b:4b:96:52:ff:12:41:d1:3e:f3:4d:ad:a6:4d:
                    55:4a:ec:d2:ae:4a:56:b7:3f:19:9a:f1:fd:6e:53:
                    83:db:8a:e5:f5:3e:6c:07:b9:a9:03:3b:09:30:b6:
                    86:a9:a0:ab:c7:ca:33:3b:95:9d:d6:a5:ef:41:3a:
                    10:f2:f3:0d:5f:af:50:8f:0a:44:30:62:96:a7:ae:
                    b3:bc:e0:b0:b9:f1:fb:26:39:8e:4b:df:5d:74:7f:
                    04:13:1a:07:dc:de:61:7d:fb:86:3b:61:64:ad:6d:
                    71:8a:f3
                Exponent: 65537 (0x10001)
        X509v3 extensions:
            X509v3 Basic Constraints: 
                CA:FALSE
            X509v3 Key Usage: 
                Digital Signature, Non Repudiation, Key Encipherment, Data Encipherment, Encipher Only
            Netscape Comment: 
                OpenSSL Generated Certificate
            X509v3 Subject Key Identifier: 
                BA:80:09:49:C9:FD:91:B8:1A:F9:1C:83:E4:D6:FE:5C:10:3E:1A:EA
            X509v3 Authority Key Identifier: 
                37:43:20:1B:BB:63:91:9B:D3:10:69:59:83:6F:34:9E:CF:D8:80:8E
    Signature Algorithm: sha256WithRSAEncryption
    Signature Value:
        49:d2:2a:48:b0:3a:a4:f9:63:ee:86:4b:25:95:cb:0c:e0:20:
        61:2d:39:d4:fd:24:a8:46:ed:37:a4:9b:0b:52:fc:67:6b:9e:
        41:15:4f:bc:cf:28:9b:b4:ab:ab:03:95:7a:e2:92:63:60:81:
        1e:b6:44:bb:79:29:c2:91:ac:2a:72:f3:86:8c:6c:e4:a6:08:
        01:c7:21:72:94:28:df:b0:08:83:f8:b1:d0:7e:21:11:51:46:
        a5:f9:9a:16:87:2e:06:ad:2a:fd:ce:44:c4:bc:71:90:e4:8a:
        e2:00:1b:c5:84:99:ba:68:10:2a:03:33:28:84:ae:58:62:bc:
        21:29:50:8e:97:6e:84:bb:34:97:da:11:43:4c:32:60:ff:ae:
        06:32:5d:83:8f:f9:49:d0:97:04:7a:b2:61:ed:c3:e7:9a:84:
        77:7b:b5:33:f9:e5:d7:71:de:37:c8:23:a2:f6:95:5a:c2:bc:
        8f:0f:e1:d5:50:30:84:a8:c7:0e:ed:ab:f8:81:b4:df:ce:3f:
        f3:42:8c:27:ad:76:8a:11:8f:01:83:43:9f:ee:45:3e:70:0c:
        03:1c:84:b6:ec:f1:28:32:8b:52:06:66:3c:c3:80:fd:4b:e4:
        f3:d2:5a:b2:c9:40:29:4d:41:55:d3:70:af:aa:55:7e:c7:d3:
        c5:2f:41:c7
-----BEGIN CERTIFICATE-----
MIIEuTCCA6GgAwIBAgIBAjANBgkqhkiG9w0BAQsFADBTMQswCQYDVQQGEwJCQTEL
MAkGA1UECAwCUlMxDDAKBgNVBAoMA0VURjEMMAoGA1UEAwwDQ0EyMRswGQYJKoZI
hvcNAQkBFgxjYTJAbWFpbC5jb20wHhcNMjIwODI4MjAyNDMxWhcNMjMwODI4MjAy
NDMxWjBhMQswCQYDVQQGEwJCQTELMAkGA1UECAwCUlMxITAfBgNVBAoMGEVsZWt0
cm90ZWhuaWNraSBmYWt1bHRldDEOMAwGA1UECwwFVU5JQkwxEjAQBgNVBAMMCWtv
cmlzbmlrNDCCAiIwDQYJKoZIhvcNAQEBBQADggIPADCCAgoCggIBAPOldTLRCamS
ghSFoS063uWb2qGXZg9hcSLRe7+Xfk+1p95ZEhjbgL56in314XI1Ya0Ec8N6EbtV
v6OZYfoeAMAJbcjnQ676K5E4l94CsxioMWttYTkHKWuN+BaACisMP7MkL7wFNkxI
z4oOMc4PxRrtQuZmBFkAx14o2o2olOKN2GVr2DC/HKkRyOTLFoe2OdCK41HAMuO5
/Qrg7W1V9+W95nBpSNY3sbD0fkj+oc5B/Mdu9w/C/C7sZkCNWHoniU/0fs51k00n
wJrCQfRirgSf2PhiARalY0cOTQ6ru3o2E8Z4TsXVARuR06lQVCKM+YASVQl4LeY6
lhv7gVyULvQj6epaLm16PmGiNTGf8s2gKDTANqk/v0DERUfcvwEwQoP6GST8I1Ct
eFpXd03kdvmv/MyTm1K20aqNzB04RfylYuxQVn6JlSeqDQOKr9AFWx5WvD/zmCmn
m4EuQJIC8Qf6p7neu/o5yQGmjBl61XJa8Je8VN7aDFhLUUn25O83/L0nejlW+NiA
hj7eImI+ZX/YtXf3V3tLllL/EkHRPvNNraZNVUrs0q5KVrc/GZrx/W5Tg9uK5fU+
bAe5qQM7CTC2hqmgq8fKMzuVndal70E6EPLzDV+vUI8KRDBilqeus7zgsLnx+yY5
jkvfXXR/BBMaB9zeYX37hjthZK1tcYrzAgMBAAGjgYkwgYYwCQYDVR0TBAIwADAL
BgNVHQ8EBAMCAPEwLAYJYIZIAYb4QgENBB8WHU9wZW5TU0wgR2VuZXJhdGVkIENl
cnRpZmljYXRlMB0GA1UdDgQWBBS6gAlJyf2RuBr5HIPk1v5cED4a6jAfBgNVHSME
GDAWgBQ3QyAbu2ORm9MQaVmDbzSez9iAjjANBgkqhkiG9w0BAQsFAAOCAQEASdIq
SLA6pPlj7oZLJZXLDOAgYS051P0kqEbtN6SbC1L8Z2ueQRVPvM8om7SrqwOVeuKS
Y2CBHrZEu3kpwpGsKnLzhoxs5KYIAcchcpQo37AIg/ix0H4hEVFGpfmaFocuBq0q
/c5ExLxxkOSK4gAbxYSZumgQKgMzKISuWGK8ISlQjpduhLs0l9oRQ0wyYP+uBjJd
g4/5SdCXBHqyYe3D55qEd3u1M/nl13HeN8gjovaVWsK8jw/h1VAwhKjHDu2r+IG0
384/80KMJ612ihGPAYNDn+5FPnAMAxyEtuzxKDKLUgZmPMOA/Uvk89JasslAKU1B
VdNwr6pVfsfTxS9Bxw==
-----END CERTIFICATE-----
