Certificate:
    Data:
        Version: 3 (0x2)
        Serial Number: 1 (0x1)
        Signature Algorithm: sha256WithRSAEncryption
        Issuer: C=BA, ST=RS, O=ETF, CN=CA1/emailAddress=ca1@mail.com
        Validity
            Not Before: Aug 28 11:47:25 2022 GMT
            Not After : Aug 28 11:47:25 2023 GMT
        Subject: C=BA, ST=RS, O=Elektrotehnicki fakultet, OU=UNIBL, CN=korisnik2
        Subject Public Key Info:
            Public Key Algorithm: rsaEncryption
                Public-Key: (4096 bit)
                Modulus:
                    00:d1:4d:1f:13:42:36:6d:5f:de:dc:fb:54:47:5b:
                    e1:88:e5:22:47:97:37:82:8e:da:9c:51:e5:c8:5a:
                    50:40:3a:37:cd:0e:e4:e7:db:55:c6:e9:2a:a1:05:
                    f0:83:ec:94:a7:d2:91:98:77:13:de:03:d5:a3:5a:
                    76:c5:4d:71:b6:2d:28:4a:f2:0a:3e:b8:6c:49:b1:
                    1b:74:a5:cc:55:75:3c:6f:12:0d:59:f6:54:23:aa:
                    74:5e:36:f6:fe:c9:85:78:08:ed:d3:1c:53:2f:07:
                    07:27:d3:ea:db:51:b2:c1:1f:fa:54:36:ed:40:ef:
                    e7:46:84:99:d5:16:87:c6:35:11:91:f3:7d:b7:f3:
                    21:22:87:dd:5d:6b:4d:dd:90:ed:80:69:d4:b0:3f:
                    2e:fa:c7:e0:07:94:72:e2:38:14:15:be:08:4a:97:
                    61:bf:b1:29:b2:25:1c:12:74:8f:dc:97:9d:68:61:
                    29:a6:d9:df:d1:88:cb:98:21:6a:6f:5f:e5:e1:af:
                    8b:c6:ec:0a:42:7d:d1:79:c4:95:da:9d:0a:01:58:
                    80:ca:8d:be:db:5b:48:ce:63:f2:4d:a4:c3:aa:e1:
                    b1:02:34:64:17:ff:2c:de:46:e5:07:0b:e3:47:f2:
                    a9:07:5a:a4:ec:1f:d0:20:21:d3:7c:ce:f1:3b:8f:
                    ec:96:5c:30:12:29:17:a4:9f:27:93:bd:2c:f9:d0:
                    17:34:f1:04:5d:51:fa:74:c9:f0:19:75:ea:07:d1:
                    8f:c4:4f:96:c8:db:63:6a:e4:df:03:f9:ee:0d:fc:
                    75:4b:db:8e:fa:c8:21:3a:0c:9a:ab:e6:2e:f6:5e:
                    c0:61:e7:29:7c:8d:8a:68:16:06:93:89:fd:12:ba:
                    fd:4b:fa:c8:2b:ed:07:e6:37:27:34:c7:c3:17:3c:
                    e7:0e:c7:eb:38:8b:fc:95:4e:27:90:0b:ec:89:50:
                    b5:5d:76:81:3c:7f:d9:5f:33:77:61:2e:0e:4c:58:
                    14:cc:22:d5:b6:3c:09:ac:49:44:ac:6e:a0:35:12:
                    05:b4:56:46:fb:b3:e6:85:22:64:27:96:d1:de:91:
                    d5:f8:2f:ea:8d:e6:a1:69:e0:37:17:9b:14:7e:25:
                    ef:39:a1:9a:61:29:9e:fa:e3:60:c5:8d:87:3e:f1:
                    1f:c4:83:db:bf:1a:66:e2:0c:96:5c:2e:f3:a0:34:
                    5a:92:02:48:31:80:fc:21:86:2a:f4:73:a2:2f:d8:
                    cf:29:5b:1a:21:49:7a:d4:8d:e5:e2:db:0a:51:aa:
                    5c:9f:3c:85:bc:7c:7c:33:a0:af:65:7e:d9:a7:aa:
                    f0:4a:1d:8d:41:3c:d6:1a:6e:ab:43:95:10:74:f2:
                    b5:24:f5
                Exponent: 65537 (0x10001)
        X509v3 extensions:
            X509v3 Basic Constraints: 
                CA:FALSE
            X509v3 Key Usage: 
                Digital Signature, Non Repudiation, Key Encipherment, Data Encipherment, Encipher Only
            Netscape Comment: 
                OpenSSL Generated Certificate
            X509v3 Subject Key Identifier: 
                61:54:8E:CE:23:40:09:93:A8:05:1E:DD:BA:02:D9:69:61:14:05:F2
            X509v3 Authority Key Identifier: 
                46:33:DC:50:85:A9:74:41:36:14:40:D1:E4:08:E7:1A:CD:24:19:DC
    Signature Algorithm: sha256WithRSAEncryption
    Signature Value:
        c9:53:8a:ef:a0:b3:86:90:32:2e:a7:a1:08:2d:0b:91:cb:ab:
        15:42:96:54:7d:f2:ad:a2:fd:9f:a8:e2:cc:64:b3:fb:bf:a4:
        f0:42:19:63:f9:09:da:92:ad:de:8e:0d:3e:b3:21:fb:75:f1:
        e3:39:b6:ca:77:1d:1b:ac:00:8d:09:d1:62:89:e4:cb:50:87:
        15:d9:53:3f:e1:b8:d3:37:53:a8:25:bf:2b:1b:53:c9:1f:01:
        f4:27:f6:a0:5b:f1:67:14:9d:fe:60:94:2f:30:a5:1f:f8:25:
        ec:28:e4:14:bb:b6:19:64:9c:6a:49:25:80:a5:ce:0f:7d:86:
        0b:ad:a3:84:4b:9a:17:47:11:ad:94:06:f7:9c:56:bc:45:d1:
        cf:97:7e:61:e5:34:f5:08:4b:2b:24:5f:6a:cd:ea:b5:e9:a8:
        30:5e:47:b0:58:70:f5:d2:ce:9f:c8:f0:74:4b:33:22:8e:13:
        d4:b4:f3:b0:cd:61:a8:13:17:65:ea:aa:1d:f2:b4:c3:82:13:
        41:74:6c:9b:3f:14:dd:c5:00:32:09:78:20:c0:81:58:03:17:
        96:b9:8f:d3:b0:fa:b7:82:3c:e3:7e:05:cd:ba:03:0f:61:2d:
        5e:96:44:cb:4e:d7:5e:c3:da:54:c1:61:67:e3:6a:a3:0f:6c:
        24:40:e1:0f
-----BEGIN CERTIFICATE-----
MIIEuTCCA6GgAwIBAgIBATANBgkqhkiG9w0BAQsFADBTMQswCQYDVQQGEwJCQTEL
MAkGA1UECAwCUlMxDDAKBgNVBAoMA0VURjEMMAoGA1UEAwwDQ0ExMRswGQYJKoZI
hvcNAQkBFgxjYTFAbWFpbC5jb20wHhcNMjIwODI4MTE0NzI1WhcNMjMwODI4MTE0
NzI1WjBhMQswCQYDVQQGEwJCQTELMAkGA1UECAwCUlMxITAfBgNVBAoMGEVsZWt0
cm90ZWhuaWNraSBmYWt1bHRldDEOMAwGA1UECwwFVU5JQkwxEjAQBgNVBAMMCWtv
cmlzbmlrMjCCAiIwDQYJKoZIhvcNAQEBBQADggIPADCCAgoCggIBANFNHxNCNm1f
3tz7VEdb4YjlIkeXN4KO2pxR5chaUEA6N80O5OfbVcbpKqEF8IPslKfSkZh3E94D
1aNadsVNcbYtKEryCj64bEmxG3SlzFV1PG8SDVn2VCOqdF429v7JhXgI7dMcUy8H
ByfT6ttRssEf+lQ27UDv50aEmdUWh8Y1EZHzfbfzISKH3V1rTd2Q7YBp1LA/LvrH
4AeUcuI4FBW+CEqXYb+xKbIlHBJ0j9yXnWhhKabZ39GIy5gham9f5eGvi8bsCkJ9
0XnEldqdCgFYgMqNvttbSM5j8k2kw6rhsQI0ZBf/LN5G5QcL40fyqQdapOwf0CAh
03zO8TuP7JZcMBIpF6SfJ5O9LPnQFzTxBF1R+nTJ8Bl16gfRj8RPlsjbY2rk3wP5
7g38dUvbjvrIIToMmqvmLvZewGHnKXyNimgWBpOJ/RK6/Uv6yCvtB+Y3JzTHwxc8
5w7H6ziL/JVOJ5AL7IlQtV12gTx/2V8zd2EuDkxYFMwi1bY8CaxJRKxuoDUSBbRW
Rvuz5oUiZCeW0d6R1fgv6o3moWngNxebFH4l7zmhmmEpnvrjYMWNhz7xH8SD278a
ZuIMllwu86A0WpICSDGA/CGGKvRzoi/YzylbGiFJetSN5eLbClGqXJ88hbx8fDOg
r2V+2aeq8EodjUE81hpuq0OVEHTytST1AgMBAAGjgYkwgYYwCQYDVR0TBAIwADAL
BgNVHQ8EBAMCAPEwLAYJYIZIAYb4QgENBB8WHU9wZW5TU0wgR2VuZXJhdGVkIENl
cnRpZmljYXRlMB0GA1UdDgQWBBRhVI7OI0AJk6gFHt26AtlpYRQF8jAfBgNVHSME
GDAWgBRGM9xQhal0QTYUQNHkCOcazSQZ3DANBgkqhkiG9w0BAQsFAAOCAQEAyVOK
76CzhpAyLqehCC0LkcurFUKWVH3yraL9n6jizGSz+7+k8EIZY/kJ2pKt3o4NPrMh
+3Xx4zm2yncdG6wAjQnRYonky1CHFdlTP+G40zdTqCW/KxtTyR8B9Cf2oFvxZxSd
/mCULzClH/gl7CjkFLu2GWScakklgKXOD32GC62jhEuaF0cRrZQG95xWvEXRz5d+
YeU09QhLKyRfas3qtemoMF5HsFhw9dLOn8jwdEszIo4T1LTzsM1hqBMXZeqqHfK0
w4ITQXRsmz8U3cUAMgl4IMCBWAMXlrmP07D6t4I8434FzboDD2EtXpZEy07XXsPa
VMFhZ+Nqow9sJEDhDw==
-----END CERTIFICATE-----
