Certificate:
    Data:
        Version: 3 (0x2)
        Serial Number: 1 (0x1)
        Signature Algorithm: sha256WithRSAEncryption
        Issuer: C=BA, ST=RS, O=ETF, CN=CA1/emailAddress=ca1@mail.com
        Validity
            Not Before: Aug 29 00:07:31 2022 GMT
            Not After : Aug 29 00:07:31 2023 GMT
        Subject: C=BA, ST=RS, O=Elektrotehnicki fakultet, OU=UNIBL, CN=korisnik1
        Subject Public Key Info:
            Public Key Algorithm: rsaEncryption
                Public-Key: (4096 bit)
                Modulus:
                    00:f7:3c:e9:83:49:97:b4:51:65:87:38:e0:13:52:
                    5e:00:9a:5a:c2:62:1c:10:e5:bf:b0:ea:8c:db:7c:
                    72:ec:6f:cb:17:43:df:bf:7a:ec:15:2c:27:16:64:
                    32:80:d8:9d:29:e6:ac:c6:22:79:b5:65:72:83:3c:
                    d6:ba:68:41:cc:61:bb:54:1d:61:4f:f8:53:68:4f:
                    1e:0f:4b:d8:01:8f:e9:6f:e9:d9:3f:a6:91:81:c1:
                    39:bc:7e:25:12:de:a5:af:4d:76:d2:0c:a8:13:b0:
                    34:46:c1:5f:10:10:e7:b0:6f:2f:a1:c2:82:0d:83:
                    e4:b0:5c:5f:bc:7a:e1:d3:6a:6c:ba:40:7d:e9:85:
                    11:e7:8f:dc:16:a1:ef:69:cb:d8:d1:75:76:d3:83:
                    a4:46:bf:fe:eb:e0:41:82:44:da:d4:42:e4:d1:7c:
                    18:cb:dc:74:a9:eb:3c:5a:aa:6f:57:66:bb:5f:a0:
                    1f:7a:05:d1:92:b8:58:66:7f:71:50:a0:58:f0:64:
                    00:69:2f:aa:45:a6:d2:e8:f5:58:e5:78:52:32:76:
                    a6:ea:08:83:a6:46:f3:a5:da:e1:92:0c:2b:38:41:
                    af:6f:64:75:b3:db:70:99:9f:dc:cd:94:36:08:31:
                    2f:3f:83:61:86:d2:8f:8c:19:5a:9a:8d:96:f7:45:
                    76:05:3e:51:b5:5d:aa:79:f9:a8:01:6d:96:8f:a5:
                    d1:67:42:c8:4f:b5:54:4b:be:a8:f8:1b:1e:36:43:
                    74:77:85:72:e6:d1:9a:a0:d5:cc:42:a3:e5:cf:3b:
                    69:45:c0:61:3e:5e:b3:cf:af:3a:2c:ae:aa:07:68:
                    c4:f4:53:19:d8:1f:26:49:36:60:68:a2:ec:d2:f9:
                    a3:d3:69:48:3f:7e:1f:6d:3a:4e:e1:70:5c:de:ab:
                    dc:36:e2:c1:a9:86:89:20:81:52:3e:3f:1e:d8:c1:
                    66:db:b8:fa:aa:78:1f:35:fe:db:2a:a5:61:a2:82:
                    39:86:38:02:53:6f:e4:58:27:96:c9:a2:10:0d:8e:
                    ab:25:e0:e9:e2:71:44:82:b3:22:1b:cd:ce:d0:3f:
                    c7:4c:ba:72:53:6e:7e:de:cd:3d:bf:43:c6:ea:a5:
                    2f:da:d8:99:ec:d1:49:86:75:13:7e:42:72:fb:dc:
                    3b:2f:05:ff:17:cd:b4:4f:21:12:94:8c:37:8b:b4:
                    a2:01:1a:11:af:b0:d5:21:58:4f:33:56:01:b4:77:
                    b4:c6:ba:46:fe:fc:a7:b9:2a:e8:d8:ad:83:8e:b5:
                    31:26:18:c0:fe:80:8c:ca:04:eb:f4:30:b0:29:17:
                    e9:cd:24:0a:ef:e4:c0:9d:19:9a:6e:76:21:23:ba:
                    a0:fa:fb
                Exponent: 65537 (0x10001)
        X509v3 extensions:
            X509v3 Basic Constraints: 
                CA:FALSE
            X509v3 Key Usage: 
                Digital Signature, Non Repudiation, Key Encipherment, Data Encipherment, Encipher Only
            Netscape Comment: 
                OpenSSL Generated Certificate
            X509v3 Subject Key Identifier: 
                8B:82:31:4B:40:D2:BD:50:A3:58:B8:0A:A3:4D:17:B6:9B:9F:9C:18
            X509v3 Authority Key Identifier: 
                46:33:DC:50:85:A9:74:41:36:14:40:D1:E4:08:E7:1A:CD:24:19:DC
    Signature Algorithm: sha256WithRSAEncryption
    Signature Value:
        12:59:39:e8:7f:82:50:84:08:74:38:e6:f0:78:c2:c6:0d:3a:
        72:5a:78:62:b8:53:ff:8f:a0:59:27:f5:c4:17:3a:83:d3:ab:
        90:53:4b:80:32:93:79:0b:09:e9:ae:7d:66:fe:b3:e5:15:1e:
        06:63:a8:88:36:61:55:bc:77:13:fe:8c:be:72:c2:a3:cd:ff:
        44:9d:d1:52:17:4e:b5:4a:76:8c:2c:5c:96:3f:06:c2:58:53:
        c9:71:d6:f7:86:9c:ea:6d:e8:ae:0e:a6:fc:82:15:81:30:19:
        5f:94:60:f9:28:60:03:3e:56:8d:f0:a6:58:3f:4f:77:b0:f2:
        0a:92:cc:92:b0:f8:64:99:26:04:30:8e:8a:c4:17:86:96:b4:
        e9:04:68:60:2d:f3:78:80:dc:01:d1:2f:f1:b2:96:ae:3f:7b:
        a3:54:f2:54:6d:41:52:94:23:53:c0:0a:47:e2:d0:ed:e1:02:
        ea:87:b5:43:07:43:d1:de:88:23:b1:8a:cf:0e:ae:5c:5c:1e:
        c7:cf:08:d3:9c:01:ff:99:31:48:48:1e:9b:65:81:49:e7:d8:
        a8:d9:5f:7c:30:4b:ec:68:91:20:f8:61:55:ae:1c:69:30:83:
        ff:6a:a8:72:cb:61:f3:d4:54:bc:0b:35:fa:fd:a6:87:f2:29:
        ad:ff:18:5a
-----BEGIN CERTIFICATE-----
MIIEuTCCA6GgAwIBAgIBATANBgkqhkiG9w0BAQsFADBTMQswCQYDVQQGEwJCQTEL
MAkGA1UECAwCUlMxDDAKBgNVBAoMA0VURjEMMAoGA1UEAwwDQ0ExMRswGQYJKoZI
hvcNAQkBFgxjYTFAbWFpbC5jb20wHhcNMjIwODI5MDAwNzMxWhcNMjMwODI5MDAw
NzMxWjBhMQswCQYDVQQGEwJCQTELMAkGA1UECAwCUlMxITAfBgNVBAoMGEVsZWt0
cm90ZWhuaWNraSBmYWt1bHRldDEOMAwGA1UECwwFVU5JQkwxEjAQBgNVBAMMCWtv
cmlzbmlrMTCCAiIwDQYJKoZIhvcNAQEBBQADggIPADCCAgoCggIBAPc86YNJl7RR
ZYc44BNSXgCaWsJiHBDlv7DqjNt8cuxvyxdD37967BUsJxZkMoDYnSnmrMYiebVl
coM81rpoQcxhu1QdYU/4U2hPHg9L2AGP6W/p2T+mkYHBObx+JRLepa9NdtIMqBOw
NEbBXxAQ57BvL6HCgg2D5LBcX7x64dNqbLpAfemFEeeP3Bah72nL2NF1dtODpEa/
/uvgQYJE2tRC5NF8GMvcdKnrPFqqb1dmu1+gH3oF0ZK4WGZ/cVCgWPBkAGkvqkWm
0uj1WOV4UjJ2puoIg6ZG86Xa4ZIMKzhBr29kdbPbcJmf3M2UNggxLz+DYYbSj4wZ
WpqNlvdFdgU+UbVdqnn5qAFtlo+l0WdCyE+1VEu+qPgbHjZDdHeFcubRmqDVzEKj
5c87aUXAYT5es8+vOiyuqgdoxPRTGdgfJkk2YGii7NL5o9NpSD9+H206TuFwXN6r
3DbiwamGiSCBUj4/HtjBZtu4+qp4HzX+2yqlYaKCOYY4AlNv5FgnlsmiEA2OqyXg
6eJxRIKzIhvNztA/x0y6clNuft7NPb9DxuqlL9rYmezRSYZ1E35CcvvcOy8F/xfN
tE8hEpSMN4u0ogEaEa+w1SFYTzNWAbR3tMa6Rv78p7kq6Nitg461MSYYwP6AjMoE
6/QwsCkX6c0kCu/kwJ0Zmm52ISO6oPr7AgMBAAGjgYkwgYYwCQYDVR0TBAIwADAL
BgNVHQ8EBAMCAPEwLAYJYIZIAYb4QgENBB8WHU9wZW5TU0wgR2VuZXJhdGVkIENl
cnRpZmljYXRlMB0GA1UdDgQWBBSLgjFLQNK9UKNYuAqjTRe2m5+cGDAfBgNVHSME
GDAWgBRGM9xQhal0QTYUQNHkCOcazSQZ3DANBgkqhkiG9w0BAQsFAAOCAQEAElk5
6H+CUIQIdDjm8HjCxg06clp4YrhT/4+gWSf1xBc6g9OrkFNLgDKTeQsJ6a59Zv6z
5RUeBmOoiDZhVbx3E/6MvnLCo83/RJ3RUhdOtUp2jCxclj8GwlhTyXHW94ac6m3o
rg6m/IIVgTAZX5Rg+ShgAz5WjfCmWD9Pd7DyCpLMkrD4ZJkmBDCOisQXhpa06QRo
YC3zeIDcAdEv8bKWrj97o1TyVG1BUpQjU8AKR+LQ7eEC6oe1QwdD0d6II7GKzw6u
XFwex88I05wB/5kxSEgem2WBSefYqNlffDBL7GiRIPhhVa4caTCD/2qocsth89RU
vAs1+v2mh/Iprf8YWg==
-----END CERTIFICATE-----
