Certificate:
    Data:
        Version: 3 (0x2)
        Serial Number: 2 (0x2)
        Signature Algorithm: sha256WithRSAEncryption
        Issuer: C=BA, ST=RS, O=ETF, CN=CA1/emailAddress=ca1@mail.com
        Validity
            Not Before: Aug 28 20:23:57 2022 GMT
            Not After : Aug 28 20:23:57 2023 GMT
        Subject: C=BA, ST=RS, O=Elektrotehnicki fakultet, OU=UNIBL, CN=korisnik1
        Subject Public Key Info:
            Public Key Algorithm: rsaEncryption
                Public-Key: (4096 bit)
                Modulus:
                    00:ce:c1:22:89:d4:b9:22:ef:66:35:d3:23:fe:66:
                    e9:35:18:bf:fe:9a:bd:94:8a:5d:44:e3:dc:98:3f:
                    68:89:a1:87:1e:14:c2:8c:26:3f:09:e5:ed:72:53:
                    14:1f:b7:73:0a:d8:7a:74:0a:d8:e2:80:9e:8d:8a:
                    13:7b:9b:9e:10:ef:91:aa:52:6e:a2:45:bc:40:6d:
                    0b:d4:88:9b:40:a3:70:f1:bf:c5:7b:e0:8b:f1:11:
                    9a:01:8a:e4:6c:58:80:b3:5d:b6:59:ac:3e:5a:7f:
                    01:c3:7f:48:a8:b8:70:be:d7:36:0e:35:99:46:ce:
                    be:82:22:c6:ea:2d:ad:1c:63:04:6f:69:80:16:98:
                    7a:05:09:1e:40:bd:11:13:9f:a0:ec:80:52:ff:e0:
                    45:86:10:45:25:48:30:fe:a3:ef:ef:ca:11:59:45:
                    48:5e:3c:4d:f3:1d:ed:d7:18:de:4b:69:f7:df:a7:
                    8f:4e:e0:d2:72:af:6b:8a:50:63:87:dc:e0:87:cd:
                    89:09:54:9b:23:0e:02:a6:95:0c:d2:4b:90:3b:f7:
                    14:ec:f8:c0:f9:2a:9c:f0:a1:35:ee:81:0c:8f:ae:
                    bb:11:bb:d0:bd:d1:38:c9:3d:16:d9:36:28:51:60:
                    32:4a:27:a5:7c:5a:4c:3f:31:25:4a:63:45:67:32:
                    82:e9:7d:87:9e:ab:6c:cc:7f:0a:73:0b:45:f9:27:
                    7c:60:23:7c:fb:31:fe:d6:c2:f8:c5:89:a1:22:d9:
                    4c:4f:64:19:01:aa:18:7f:c8:54:f2:92:69:b2:2b:
                    ce:20:ea:ff:4c:7d:d0:2c:ee:0e:c9:02:2d:d3:fd:
                    24:08:c7:93:b1:04:f9:df:47:16:b5:8c:da:a9:5d:
                    e7:c9:24:ac:66:17:e5:3a:72:5e:60:06:ee:76:b0:
                    b2:a4:82:f7:f0:09:fd:a0:18:32:76:33:f3:59:51:
                    b4:e3:f2:f9:b4:8e:b7:2e:e7:fe:b8:53:5b:b4:6b:
                    ca:c1:97:64:93:c8:d7:13:ca:5a:20:7b:8d:b7:e0:
                    f5:52:d2:07:05:5a:35:3e:5f:c3:ec:3c:d1:45:c6:
                    c9:6a:d2:c0:14:77:df:f6:10:91:72:b6:08:9a:b8:
                    f4:97:8b:a8:33:5d:0e:48:61:1f:3b:12:f9:de:1b:
                    aa:14:79:27:3b:57:bb:e7:ac:ec:c5:1e:a7:93:8a:
                    0d:53:f2:e0:5d:23:44:c9:d4:c8:f3:2e:4f:d1:9c:
                    e8:5d:58:cd:01:b4:1d:75:97:53:46:0d:da:68:17:
                    e4:2a:bd:f0:77:23:ac:7f:05:56:40:05:af:35:17:
                    79:8f:42:24:e1:20:d9:f0:87:5a:f9:f3:71:75:91:
                    79:d3:bf
                Exponent: 65537 (0x10001)
        X509v3 extensions:
            X509v3 Basic Constraints: 
                CA:FALSE
            X509v3 Key Usage: 
                Digital Signature, Non Repudiation, Key Encipherment, Data Encipherment, Encipher Only
            Netscape Comment: 
                OpenSSL Generated Certificate
            X509v3 Subject Key Identifier: 
                6F:5E:76:2A:B0:E8:AE:06:5C:90:F2:E0:49:5C:33:BD:EB:6C:FB:8F
            X509v3 Authority Key Identifier: 
                46:33:DC:50:85:A9:74:41:36:14:40:D1:E4:08:E7:1A:CD:24:19:DC
    Signature Algorithm: sha256WithRSAEncryption
    Signature Value:
        80:d4:ab:ff:8d:84:7a:b5:96:f2:d3:dc:fe:a3:a1:f4:ae:a1:
        32:34:60:5a:48:5a:93:91:33:7f:22:a2:c8:e4:e9:ad:44:d5:
        be:83:07:7c:3a:3d:ab:a9:64:76:e3:08:e3:83:af:b6:42:06:
        a0:fe:6f:2d:88:7c:94:c2:9f:58:88:a1:83:02:17:29:75:96:
        14:04:5d:60:6d:1d:43:97:72:a7:b0:69:1f:4f:36:36:51:75:
        c8:5b:20:e4:91:66:81:92:27:e5:86:0f:0e:83:b3:5b:3e:11:
        b6:b9:7f:ad:ec:b3:d9:25:97:ad:15:f1:23:ef:93:08:ae:14:
        25:a3:11:0d:d9:3b:6a:fc:c9:40:72:56:78:1f:3f:11:2f:4d:
        6a:d7:6b:02:6d:7f:73:d0:75:be:8a:9c:10:8d:74:39:b5:8a:
        93:59:20:7e:8c:8b:1c:1a:68:95:ce:6c:0c:e5:d5:c6:6c:25:
        da:06:3b:94:03:a2:b7:a2:9d:60:2e:5f:c7:2a:bb:da:e6:f9:
        66:28:97:8b:b1:45:99:d6:f3:f7:85:6b:aa:be:5c:5a:b7:ae:
        f5:72:1e:00:19:c7:1f:9c:13:51:16:10:2a:08:44:73:cd:3c:
        ca:90:07:5e:e1:16:f0:0e:17:7a:79:59:d7:44:87:c3:ac:98:
        ef:62:b1:38
-----BEGIN CERTIFICATE-----
MIIEuTCCA6GgAwIBAgIBAjANBgkqhkiG9w0BAQsFADBTMQswCQYDVQQGEwJCQTEL
MAkGA1UECAwCUlMxDDAKBgNVBAoMA0VURjEMMAoGA1UEAwwDQ0ExMRswGQYJKoZI
hvcNAQkBFgxjYTFAbWFpbC5jb20wHhcNMjIwODI4MjAyMzU3WhcNMjMwODI4MjAy
MzU3WjBhMQswCQYDVQQGEwJCQTELMAkGA1UECAwCUlMxITAfBgNVBAoMGEVsZWt0
cm90ZWhuaWNraSBmYWt1bHRldDEOMAwGA1UECwwFVU5JQkwxEjAQBgNVBAMMCWtv
cmlzbmlrMTCCAiIwDQYJKoZIhvcNAQEBBQADggIPADCCAgoCggIBAM7BIonUuSLv
ZjXTI/5m6TUYv/6avZSKXUTj3Jg/aImhhx4UwowmPwnl7XJTFB+3cwrYenQK2OKA
no2KE3ubnhDvkapSbqJFvEBtC9SIm0CjcPG/xXvgi/ERmgGK5GxYgLNdtlmsPlp/
AcN/SKi4cL7XNg41mUbOvoIixuotrRxjBG9pgBaYegUJHkC9EROfoOyAUv/gRYYQ
RSVIMP6j7+/KEVlFSF48TfMd7dcY3ktp99+nj07g0nKva4pQY4fc4IfNiQlUmyMO
AqaVDNJLkDv3FOz4wPkqnPChNe6BDI+uuxG70L3ROMk9Ftk2KFFgMkonpXxaTD8x
JUpjRWcygul9h56rbMx/CnMLRfknfGAjfPsx/tbC+MWJoSLZTE9kGQGqGH/IVPKS
abIrziDq/0x90CzuDskCLdP9JAjHk7EE+d9HFrWM2qld58kkrGYX5TpyXmAG7naw
sqSC9/AJ/aAYMnYz81lRtOPy+bSOty7n/rhTW7RrysGXZJPI1xPKWiB7jbfg9VLS
BwVaNT5fw+w80UXGyWrSwBR33/YQkXK2CJq49JeLqDNdDkhhHzsS+d4bqhR5JztX
u+es7MUep5OKDVPy4F0jRMnUyPMuT9Gc6F1YzQG0HXWXU0YN2mgX5Cq98HcjrH8F
VkAFrzUXeY9CJOEg2fCHWvnzcXWRedO/AgMBAAGjgYkwgYYwCQYDVR0TBAIwADAL
BgNVHQ8EBAMCAPEwLAYJYIZIAYb4QgENBB8WHU9wZW5TU0wgR2VuZXJhdGVkIENl
cnRpZmljYXRlMB0GA1UdDgQWBBRvXnYqsOiuBlyQ8uBJXDO962z7jzAfBgNVHSME
GDAWgBRGM9xQhal0QTYUQNHkCOcazSQZ3DANBgkqhkiG9w0BAQsFAAOCAQEAgNSr
/42EerWW8tPc/qOh9K6hMjRgWkhak5EzfyKiyOTprUTVvoMHfDo9q6lkduMI44Ov
tkIGoP5vLYh8lMKfWIihgwIXKXWWFARdYG0dQ5dyp7BpH082NlF1yFsg5JFmgZIn
5YYPDoOzWz4Rtrl/reyz2SWXrRXxI++TCK4UJaMRDdk7avzJQHJWeB8/ES9Natdr
Am1/c9B1voqcEI10ObWKk1kgfoyLHBpolc5sDOXVxmwl2gY7lAOit6KdYC5fxyq7
2ub5ZiiXi7FFmdbz94Vrqr5cWreu9XIeABnHH5wTURYQKghEc808ypAHXuEW8A4X
enlZ10SHw6yY72KxOA==
-----END CERTIFICATE-----
