Certificate:
    Data:
        Version: 3 (0x2)
        Serial Number: 3 (0x3)
        Signature Algorithm: sha256WithRSAEncryption
        Issuer: C=BA, ST=RS, O=ETF, CN=CA1/emailAddress=ca1@mail.com
        Validity
            Not Before: Aug 28 12:06:16 2022 GMT
            Not After : Aug 28 12:06:16 2023 GMT
        Subject: C=BA, ST=RS, O=Elektrotehnicki fakultet, OU=UNIBL, CN=korisnik4
        Subject Public Key Info:
            Public Key Algorithm: rsaEncryption
                Public-Key: (4096 bit)
                Modulus:
                    00:a6:95:a8:fb:4f:e8:04:92:07:8b:1c:00:dd:ff:
                    c9:45:e2:51:96:e8:0e:19:6f:23:b0:11:e1:ed:28:
                    37:5b:91:b6:bb:d5:66:8e:f7:ed:c6:11:e9:1e:0b:
                    fa:51:f8:74:86:64:3b:49:46:bf:9a:b0:28:47:cf:
                    19:27:c1:fe:13:7a:5d:3f:2f:29:8f:41:7c:41:b9:
                    70:25:11:29:f0:45:73:43:67:2f:fd:01:14:fc:8f:
                    39:5d:60:ed:4f:18:f3:1a:42:be:99:01:ca:ba:de:
                    94:fc:33:fd:ad:63:bf:f3:03:6b:3b:c5:4c:1d:f5:
                    f0:e8:c6:c3:e6:47:ed:19:c0:46:aa:29:87:a1:21:
                    20:04:76:31:ee:e0:00:46:a0:73:6f:ef:cb:f3:2e:
                    f5:1e:8b:ad:ac:33:40:78:0a:25:d0:ff:9f:a5:fc:
                    79:38:18:a2:16:ea:87:ad:6d:d7:fc:45:3a:51:1d:
                    c5:5a:58:af:1f:0c:5e:b9:d7:96:6a:90:37:8d:02:
                    91:2a:94:11:be:5c:48:95:d2:a6:c3:fc:35:b5:fb:
                    29:a7:eb:86:12:32:1a:e3:fc:d0:26:e0:6a:6d:c5:
                    dd:80:81:d5:d5:86:d1:31:4a:70:45:11:21:b0:1f:
                    9e:c4:88:13:26:b9:75:fc:fa:f3:da:a2:e0:02:bc:
                    ce:3b:94:a5:27:f8:ef:d2:2d:73:78:26:6b:51:3e:
                    29:95:6e:0e:6e:37:b0:00:ef:22:68:99:21:bd:84:
                    87:14:41:7a:6d:d6:41:05:07:58:92:ce:46:e5:32:
                    c3:3b:9a:09:0d:95:35:83:9b:fb:d8:7e:8a:32:f1:
                    3d:87:d5:fa:e6:0e:7c:f6:ff:40:af:1e:e5:56:ad:
                    33:b0:bb:94:a0:a7:3b:63:80:5e:db:c2:8e:93:0a:
                    6e:d4:71:ac:5c:1d:04:f3:9f:89:5c:e9:77:0d:5d:
                    ed:de:84:56:1e:93:f5:37:41:7e:37:8e:b5:19:69:
                    76:b9:b4:61:6e:74:b1:81:12:ec:8c:fe:80:77:36:
                    08:04:94:a4:f6:72:30:f2:8f:d4:69:b1:35:37:b4:
                    03:b4:fa:76:be:5d:b6:62:1e:5e:43:db:58:95:ce:
                    ce:45:7a:5e:dc:b3:f4:3f:e1:cc:eb:be:df:28:86:
                    c7:b9:04:4d:4d:2d:e8:f8:a0:2c:e6:d6:35:6a:94:
                    15:d8:45:6f:07:8b:f8:e2:fe:f6:4e:32:e8:6f:9b:
                    fd:26:1c:59:99:e7:6d:31:ec:fc:9e:64:0b:fa:5c:
                    ec:1d:5f:99:37:b9:77:3b:04:52:72:bf:e9:1d:4b:
                    27:17:43:37:65:62:56:c5:24:df:1e:7e:45:d5:08:
                    d8:76:bf
                Exponent: 65537 (0x10001)
        X509v3 extensions:
            X509v3 Basic Constraints: 
                CA:FALSE
            X509v3 Key Usage: 
                Digital Signature, Non Repudiation, Key Encipherment, Data Encipherment, Encipher Only
            Netscape Comment: 
                OpenSSL Generated Certificate
            X509v3 Subject Key Identifier: 
                88:B8:45:F2:C9:01:41:B7:FB:E5:33:82:F9:AF:6A:81:F3:5D:3E:CC
            X509v3 Authority Key Identifier: 
                46:33:DC:50:85:A9:74:41:36:14:40:D1:E4:08:E7:1A:CD:24:19:DC
    Signature Algorithm: sha256WithRSAEncryption
    Signature Value:
        b7:80:73:35:e7:d4:3d:12:97:91:ab:79:5c:01:8c:ce:a7:56:
        0b:38:b1:1b:43:87:52:f8:e2:50:c8:01:dc:58:d6:0b:95:fe:
        ff:bb:42:46:b9:60:29:cb:1a:9f:ce:af:7e:b3:ed:4f:f0:5e:
        f1:88:cd:48:13:67:1c:69:c3:97:f1:1f:d3:ea:3b:c5:f8:55:
        32:73:32:52:ba:e9:f6:89:cf:b3:34:b0:3b:15:5c:ee:db:51:
        2a:d7:1f:ec:25:80:0c:12:6f:77:76:77:78:b0:42:b5:92:e7:
        59:62:6d:dd:c2:7a:50:ff:c0:e9:a3:e9:a0:df:76:6e:ce:65:
        86:d4:65:dc:af:e2:87:3f:49:21:70:b7:14:c5:85:d9:fa:5c:
        1f:1d:f0:92:7d:f1:c7:60:11:1f:17:8a:d4:59:79:1f:42:9f:
        5a:77:ad:e0:53:4b:2d:8f:4e:a9:86:24:32:ea:6b:ac:26:c8:
        bf:79:7e:7a:ef:8e:c1:d1:e0:fd:f4:c8:4e:ad:cb:9a:58:7a:
        d6:8c:ec:b9:1b:9d:e0:4d:99:2c:0a:95:74:9a:00:50:ce:8b:
        0c:ff:aa:15:f6:76:cc:6b:d6:1c:3f:ef:aa:54:0d:5d:eb:8c:
        c8:8e:fc:e9:f8:52:bf:6f:17:4b:65:2f:6a:12:26:e4:20:ac:
        2e:5d:61:43
-----BEGIN CERTIFICATE-----
MIIEuTCCA6GgAwIBAgIBAzANBgkqhkiG9w0BAQsFADBTMQswCQYDVQQGEwJCQTEL
MAkGA1UECAwCUlMxDDAKBgNVBAoMA0VURjEMMAoGA1UEAwwDQ0ExMRswGQYJKoZI
hvcNAQkBFgxjYTFAbWFpbC5jb20wHhcNMjIwODI4MTIwNjE2WhcNMjMwODI4MTIw
NjE2WjBhMQswCQYDVQQGEwJCQTELMAkGA1UECAwCUlMxITAfBgNVBAoMGEVsZWt0
cm90ZWhuaWNraSBmYWt1bHRldDEOMAwGA1UECwwFVU5JQkwxEjAQBgNVBAMMCWtv
cmlzbmlrNDCCAiIwDQYJKoZIhvcNAQEBBQADggIPADCCAgoCggIBAKaVqPtP6ASS
B4scAN3/yUXiUZboDhlvI7AR4e0oN1uRtrvVZo737cYR6R4L+lH4dIZkO0lGv5qw
KEfPGSfB/hN6XT8vKY9BfEG5cCURKfBFc0NnL/0BFPyPOV1g7U8Y8xpCvpkByrre
lPwz/a1jv/MDazvFTB318OjGw+ZH7RnARqoph6EhIAR2Me7gAEagc2/vy/Mu9R6L
rawzQHgKJdD/n6X8eTgYohbqh61t1/xFOlEdxVpYrx8MXrnXlmqQN40CkSqUEb5c
SJXSpsP8NbX7KafrhhIyGuP80Cbgam3F3YCB1dWG0TFKcEURIbAfnsSIEya5dfz6
89qi4AK8zjuUpSf479Itc3gma1E+KZVuDm43sADvImiZIb2EhxRBem3WQQUHWJLO
RuUywzuaCQ2VNYOb+9h+ijLxPYfV+uYOfPb/QK8e5VatM7C7lKCnO2OAXtvCjpMK
btRxrFwdBPOfiVzpdw1d7d6EVh6T9TdBfjeOtRlpdrm0YW50sYES7Iz+gHc2CASU
pPZyMPKP1GmxNTe0A7T6dr5dtmIeXkPbWJXOzkV6Xtyz9D/hzOu+3yiGx7kETU0t
6PigLObWNWqUFdhFbweL+OL+9k4y6G+b/SYcWZnnbTHs/J5kC/pc7B1fmTe5dzsE
UnK/6R1LJxdDN2ViVsUk3x5+RdUI2Ha/AgMBAAGjgYkwgYYwCQYDVR0TBAIwADAL
BgNVHQ8EBAMCAPEwLAYJYIZIAYb4QgENBB8WHU9wZW5TU0wgR2VuZXJhdGVkIENl
cnRpZmljYXRlMB0GA1UdDgQWBBSIuEXyyQFBt/vlM4L5r2qB810+zDAfBgNVHSME
GDAWgBRGM9xQhal0QTYUQNHkCOcazSQZ3DANBgkqhkiG9w0BAQsFAAOCAQEAt4Bz
NefUPRKXkat5XAGMzqdWCzixG0OHUvjiUMgB3FjWC5X+/7tCRrlgKcsan86vfrPt
T/Be8YjNSBNnHGnDl/Ef0+o7xfhVMnMyUrrp9onPszSwOxVc7ttRKtcf7CWADBJv
d3Z3eLBCtZLnWWJt3cJ6UP/A6aPpoN92bs5lhtRl3K/ihz9JIXC3FMWF2fpcHx3w
kn3xx2ARHxeK1Fl5H0KfWnet4FNLLY9OqYYkMuprrCbIv3l+eu+OwdHg/fTITq3L
mlh61ozsuRud4E2ZLAqVdJoAUM6LDP+qFfZ2zGvWHD/vqlQNXeuMyI786fhSv28X
S2UvahIm5CCsLl1hQw==
-----END CERTIFICATE-----
