Certificate:
    Data:
        Version: 3 (0x2)
        Serial Number: 5 (0x5)
        Signature Algorithm: sha256WithRSAEncryption
        Issuer: C=BA, ST=RS, O=ETF, CN=CA1/emailAddress=ca1@mail.com
        Validity
            Not Before: Aug 28 21:25:31 2022 GMT
            Not After : Aug 28 21:25:31 2023 GMT
        Subject: C=BA, ST=RS, O=Elektrotehnicki fakultet, OU=UNIBL, CN=12345678
        Subject Public Key Info:
            Public Key Algorithm: rsaEncryption
                Public-Key: (4096 bit)
                Modulus:
                    00:ae:94:49:19:67:92:2b:12:d9:59:ce:78:2d:8c:
                    92:91:1e:78:a1:7b:2f:8c:82:95:c4:6e:ef:6b:23:
                    0b:db:00:33:53:53:c7:9c:09:1a:95:4d:60:20:f1:
                    d3:ac:e9:aa:0c:d4:5b:df:fe:f7:55:e3:10:38:9f:
                    63:82:82:d7:98:5e:fc:ff:06:2d:f7:96:75:6c:f3:
                    f9:68:f4:41:e5:bf:64:b2:4c:1d:9e:1f:d5:f9:ee:
                    93:22:10:10:29:ca:b9:11:90:d9:a0:a0:23:e7:9b:
                    6a:00:68:ef:18:09:ac:aa:07:ba:dc:0e:52:85:0c:
                    e3:5e:b9:24:4d:62:92:d6:bb:c5:34:95:8c:de:19:
                    7d:d8:99:b1:69:f3:6d:ab:34:75:a2:67:2c:c2:45:
                    4b:2c:3f:0d:39:2e:2b:60:b0:d1:02:4f:1b:7f:8f:
                    bb:fd:42:ca:a4:15:1c:32:19:d2:64:0a:8c:fa:4a:
                    d0:7b:46:72:d2:c5:05:58:b4:26:2d:cb:31:5f:31:
                    d2:dc:61:9a:f0:c0:eb:4b:81:23:a2:e2:dc:ce:e9:
                    11:aa:0c:2a:c6:ca:95:84:bb:0c:2b:20:3c:8d:0a:
                    7d:8c:e3:e8:6c:6a:27:42:1a:52:d7:1a:98:31:66:
                    6b:0c:65:84:02:16:ff:08:a8:85:bc:91:68:da:92:
                    15:ec:71:53:f9:36:02:51:82:bc:07:6a:69:84:3a:
                    1e:33:53:9d:25:c8:9d:45:0c:f2:8d:3a:43:fb:a6:
                    52:cc:4e:4f:88:07:90:04:87:a8:1b:07:c0:fa:e9:
                    0f:54:33:9a:24:1d:cd:ae:41:9c:10:fb:cc:d9:64:
                    d7:1d:2d:0e:10:9f:68:fa:15:ba:4a:8b:f3:a9:64:
                    0a:23:3e:7f:15:dd:2b:26:43:99:72:f0:af:ac:b5:
                    ac:a3:a2:9f:52:94:ce:12:05:06:43:cc:c7:26:f5:
                    2e:53:46:99:68:bc:9e:ae:1f:8a:a6:88:a3:66:15:
                    b8:c2:85:c8:a6:6e:9e:23:4e:fc:4e:ea:ae:27:77:
                    6d:2e:3d:b2:42:fa:55:ee:73:c4:7b:ef:ed:bc:c1:
                    3f:ea:c3:42:8c:1f:b3:e8:01:50:1d:4d:bb:3d:c8:
                    f5:2c:0d:b8:af:1d:6b:90:05:55:12:ea:59:a4:d0:
                    9d:22:04:dd:c2:05:19:e5:2e:39:eb:e5:95:ae:98:
                    bf:c8:64:d3:74:dc:a6:69:8c:47:23:e3:c9:f6:cb:
                    85:96:91:65:3b:d6:06:ea:67:a4:97:7e:84:6e:6f:
                    08:21:71:3b:ca:c0:0c:2d:0c:31:f7:40:73:a5:9f:
                    4e:9a:00:4d:fa:32:a2:5f:82:dd:0f:fe:2a:ab:ee:
                    8a:6b:27
                Exponent: 65537 (0x10001)
        X509v3 extensions:
            X509v3 Basic Constraints: 
                CA:FALSE
            X509v3 Key Usage: 
                Digital Signature, Non Repudiation, Key Encipherment, Data Encipherment, Encipher Only
            Netscape Comment: 
                OpenSSL Generated Certificate
            X509v3 Subject Key Identifier: 
                25:8D:B7:4E:BB:AF:AA:0B:6A:E8:8E:B7:CE:C5:92:A6:22:95:EB:25
            X509v3 Authority Key Identifier: 
                46:33:DC:50:85:A9:74:41:36:14:40:D1:E4:08:E7:1A:CD:24:19:DC
    Signature Algorithm: sha256WithRSAEncryption
    Signature Value:
        7b:53:6b:a3:38:c1:70:f7:2c:db:6a:bf:a6:01:e8:9f:36:7a:
        bb:af:e6:00:50:4b:5c:58:6d:ad:5d:ae:bc:a4:a4:e7:2c:6a:
        8e:c9:79:40:ce:6b:8e:bb:3a:30:5e:6a:c2:07:8b:03:06:65:
        de:1a:cb:6b:63:dc:9c:49:c4:cc:52:4e:50:91:09:7c:a0:56:
        f1:a0:29:37:c6:2c:99:3b:6e:05:a0:20:d1:e8:55:8d:6b:4a:
        0c:69:ad:bb:10:4b:89:b5:35:71:01:0e:25:d5:30:c6:ec:c7:
        3c:c6:91:f7:f7:b3:6f:87:7c:6e:a6:28:03:3c:db:4e:02:89:
        11:89:e3:0f:13:c9:66:ac:47:94:ed:f9:86:e7:b8:f3:25:04:
        a1:a7:e3:86:0a:17:b8:94:43:f2:af:7e:4d:2e:63:12:38:2a:
        d9:95:92:4e:53:6e:91:e0:70:96:db:96:2f:f0:26:50:59:37:
        cb:ae:b4:b5:01:df:4c:9b:03:a2:2f:49:59:a2:c4:6a:a2:c6:
        d5:02:1b:b2:7d:b9:37:19:c7:ef:f3:44:8a:f9:86:68:41:d6:
        81:32:57:5e:80:5d:4b:ca:51:d4:78:16:07:4b:be:dc:91:25:
        24:cb:16:56:7a:ec:95:5e:52:22:a1:49:63:41:ad:49:5a:d1:
        43:5c:1c:92
-----BEGIN CERTIFICATE-----
MIIEuDCCA6CgAwIBAgIBBTANBgkqhkiG9w0BAQsFADBTMQswCQYDVQQGEwJCQTEL
MAkGA1UECAwCUlMxDDAKBgNVBAoMA0VURjEMMAoGA1UEAwwDQ0ExMRswGQYJKoZI
hvcNAQkBFgxjYTFAbWFpbC5jb20wHhcNMjIwODI4MjEyNTMxWhcNMjMwODI4MjEy
NTMxWjBgMQswCQYDVQQGEwJCQTELMAkGA1UECAwCUlMxITAfBgNVBAoMGEVsZWt0
cm90ZWhuaWNraSBmYWt1bHRldDEOMAwGA1UECwwFVU5JQkwxETAPBgNVBAMMCDEy
MzQ1Njc4MIICIjANBgkqhkiG9w0BAQEFAAOCAg8AMIICCgKCAgEArpRJGWeSKxLZ
Wc54LYySkR54oXsvjIKVxG7vayML2wAzU1PHnAkalU1gIPHTrOmqDNRb3/73VeMQ
OJ9jgoLXmF78/wYt95Z1bPP5aPRB5b9kskwdnh/V+e6TIhAQKcq5EZDZoKAj55tq
AGjvGAmsqge63A5ShQzjXrkkTWKS1rvFNJWM3hl92JmxafNtqzR1omcswkVLLD8N
OS4rYLDRAk8bf4+7/ULKpBUcMhnSZAqM+krQe0Zy0sUFWLQmLcsxXzHS3GGa8MDr
S4EjouLczukRqgwqxsqVhLsMKyA8jQp9jOPobGonQhpS1xqYMWZrDGWEAhb/CKiF
vJFo2pIV7HFT+TYCUYK8B2pphDoeM1OdJcidRQzyjTpD+6ZSzE5PiAeQBIeoGwfA
+ukPVDOaJB3NrkGcEPvM2WTXHS0OEJ9o+hW6SovzqWQKIz5/Fd0rJkOZcvCvrLWs
o6KfUpTOEgUGQ8zHJvUuU0aZaLyerh+KpoijZhW4woXIpm6eI078TuquJ3dtLj2y
QvpV7nPEe+/tvME/6sNCjB+z6AFQHU27Pcj1LA24rx1rkAVVEupZpNCdIgTdwgUZ
5S456+WVrpi/yGTTdNymaYxHI+PJ9suFlpFlO9YG6mekl36Ebm8IIXE7ysAMLQwx
90BzpZ9OmgBN+jKiX4LdD/4qq+6KaycCAwEAAaOBiTCBhjAJBgNVHRMEAjAAMAsG
A1UdDwQEAwIA8TAsBglghkgBhvhCAQ0EHxYdT3BlblNTTCBHZW5lcmF0ZWQgQ2Vy
dGlmaWNhdGUwHQYDVR0OBBYEFCWNt067r6oLauiOt87FkqYileslMB8GA1UdIwQY
MBaAFEYz3FCFqXRBNhRA0eQI5xrNJBncMA0GCSqGSIb3DQEBCwUAA4IBAQB7U2uj
OMFw9yzbar+mAeifNnq7r+YAUEtcWG2tXa68pKTnLGqOyXlAzmuOuzowXmrCB4sD
BmXeGstrY9ycScTMUk5QkQl8oFbxoCk3xiyZO24FoCDR6FWNa0oMaa27EEuJtTVx
AQ4l1TDG7Mc8xpH397Nvh3xupigDPNtOAokRieMPE8lmrEeU7fmG57jzJQShp+OG
Che4lEPyr35NLmMSOCrZlZJOU26R4HCW25Yv8CZQWTfLrrS1Ad9MmwOiL0lZosRq
osbVAhuyfbk3Gcfv80SK+YZoQdaBMldegF1LylHUeBYHS77ckSUkyxZWeuyVXlIi
oUljQa1JWtFDXByS
-----END CERTIFICATE-----
