Certificate:
    Data:
        Version: 3 (0x2)
        Serial Number: 3 (0x3)
        Signature Algorithm: sha256WithRSAEncryption
        Issuer: C=BA, ST=RS, O=ETF, CN=CA1/emailAddress=ca1@mail.com
        Validity
            Not Before: Aug 28 20:24:10 2022 GMT
            Not After : Aug 28 20:24:10 2023 GMT
        Subject: C=BA, ST=RS, O=Elektrotehnicki fakultet, OU=UNIBL, CN=korisnik2
        Subject Public Key Info:
            Public Key Algorithm: rsaEncryption
                Public-Key: (4096 bit)
                Modulus:
                    00:ad:8a:98:69:47:38:e3:7f:65:bb:29:ff:d4:cd:
                    16:97:71:2f:68:9c:2f:61:f2:3b:53:25:d1:1a:58:
                    ce:5c:bf:be:23:da:42:ee:2f:fe:a8:69:fb:fb:13:
                    6a:dc:f5:77:1a:23:cc:14:c2:7d:94:e5:09:04:70:
                    8b:58:16:de:d4:7f:67:f3:fb:32:cf:8d:ea:15:48:
                    fc:b5:d0:46:6c:ba:5c:c4:ce:b9:14:10:3b:04:0f:
                    8c:7e:56:24:cf:aa:e8:76:57:39:4a:e8:8b:c5:00:
                    9d:1a:e2:1e:f8:f4:eb:4f:53:ab:ec:8a:be:5c:aa:
                    bb:fe:63:89:e2:46:e5:db:91:f3:69:d5:e9:19:09:
                    3a:45:c2:46:1e:68:b4:77:e4:ee:b5:69:e6:f4:a6:
                    9f:cd:45:85:bb:06:65:f9:b5:8a:cd:7e:d1:94:a0:
                    82:b5:c3:c8:98:bb:b5:73:be:d5:fe:aa:9c:25:f6:
                    df:f2:f4:58:ab:75:36:40:21:66:fd:78:4e:aa:e5:
                    6e:f6:01:2b:2d:29:7e:7d:c1:3b:d4:e6:2b:00:25:
                    76:9e:98:10:78:a7:31:09:14:a8:3b:8a:eb:ab:0a:
                    f7:85:74:ba:c5:75:7a:19:e8:32:b3:f3:06:26:71:
                    81:2a:a3:d5:19:6f:f4:ec:6d:4a:77:aa:b0:0a:fb:
                    ed:4e:0a:c5:70:17:74:58:3e:8b:4c:da:88:7a:65:
                    6a:23:7c:c5:db:87:96:2d:37:7c:d9:d7:29:23:61:
                    40:b5:76:6b:b5:2b:21:e1:a1:d3:5b:4b:70:1d:04:
                    35:9b:4c:67:50:28:6e:63:df:4e:ae:a7:3b:b7:12:
                    c9:b2:cf:4e:53:9b:b4:09:7b:0f:ec:07:64:d4:ee:
                    db:31:14:57:12:a7:60:8a:79:0a:0d:43:d2:1c:fc:
                    9a:f9:0e:e3:53:35:db:25:78:bc:36:bd:bb:d8:75:
                    e6:63:f4:a4:71:33:dc:c0:75:2a:df:40:b5:4e:52:
                    57:11:ee:5c:db:40:b7:72:85:80:3d:c3:68:2d:e4:
                    5f:0f:d9:b9:8b:bf:db:a2:47:4d:26:13:5f:bf:d7:
                    c0:24:6c:86:49:14:ee:d2:fa:3c:81:91:0f:4b:87:
                    07:da:7c:5d:59:dc:a6:fe:19:52:06:06:c3:33:e3:
                    5f:0a:19:10:0d:00:8d:58:70:a1:ef:31:82:30:c3:
                    17:60:44:f8:8d:1e:76:97:4f:be:86:6d:a2:ab:35:
                    24:e5:08:ce:19:33:1d:68:6f:1f:4d:95:1a:13:39:
                    c4:ff:e3:2b:f7:cb:e6:3e:fd:73:9d:af:36:81:d3:
                    df:56:ea:b4:54:f2:33:86:26:25:f1:4b:cc:10:c5:
                    6c:b5:3f
                Exponent: 65537 (0x10001)
        X509v3 extensions:
            X509v3 Basic Constraints: 
                CA:FALSE
            X509v3 Key Usage: 
                Digital Signature, Non Repudiation, Key Encipherment, Data Encipherment, Encipher Only
            Netscape Comment: 
                OpenSSL Generated Certificate
            X509v3 Subject Key Identifier: 
                2E:6A:97:1B:8E:3D:CE:C3:58:31:8D:20:EA:91:4B:7C:50:66:3B:58
            X509v3 Authority Key Identifier: 
                46:33:DC:50:85:A9:74:41:36:14:40:D1:E4:08:E7:1A:CD:24:19:DC
    Signature Algorithm: sha256WithRSAEncryption
    Signature Value:
        25:7a:42:92:00:88:6b:2f:53:a3:dd:c8:cd:0e:97:63:eb:ab:
        71:34:58:02:d5:49:27:55:5c:28:aa:9f:41:41:02:58:d3:da:
        54:f0:0e:13:90:3d:07:69:da:95:be:dc:a0:bd:1f:33:ba:3f:
        a7:f2:d3:09:b0:99:cd:ab:80:ba:da:c4:b8:19:cc:34:ef:08:
        ec:75:25:97:5e:b0:5c:d0:e8:c3:12:b3:cf:34:db:2b:25:0d:
        75:06:4e:16:5b:2a:81:0e:46:cd:ad:9b:52:24:4d:39:2a:ec:
        1b:4a:09:d0:c1:a1:d4:24:84:8d:a7:7e:4a:b2:f9:2d:5c:e0:
        0c:2a:27:f4:c2:48:a6:84:bc:7a:09:c6:e1:3f:9c:63:7d:0e:
        e1:d8:df:a8:22:a3:ce:17:28:21:89:2e:a1:6b:7e:b6:4f:8a:
        37:49:c5:98:34:be:8c:45:48:10:a6:24:c7:47:d5:b6:3e:d3:
        9d:8c:31:72:ee:c1:b1:ef:d9:35:74:18:ad:4d:25:e2:2e:03:
        4e:38:e1:79:cf:00:08:89:eb:1f:d3:88:32:5c:3e:c4:90:a8:
        0d:0e:f9:ab:46:a8:6b:1f:ce:ba:87:ed:56:6a:36:b2:8f:91:
        f4:90:1e:39:1b:91:42:4b:4c:83:8c:fa:34:82:c8:41:74:78:
        08:da:30:f5
-----BEGIN CERTIFICATE-----
MIIEuTCCA6GgAwIBAgIBAzANBgkqhkiG9w0BAQsFADBTMQswCQYDVQQGEwJCQTEL
MAkGA1UECAwCUlMxDDAKBgNVBAoMA0VURjEMMAoGA1UEAwwDQ0ExMRswGQYJKoZI
hvcNAQkBFgxjYTFAbWFpbC5jb20wHhcNMjIwODI4MjAyNDEwWhcNMjMwODI4MjAy
NDEwWjBhMQswCQYDVQQGEwJCQTELMAkGA1UECAwCUlMxITAfBgNVBAoMGEVsZWt0
cm90ZWhuaWNraSBmYWt1bHRldDEOMAwGA1UECwwFVU5JQkwxEjAQBgNVBAMMCWtv
cmlzbmlrMjCCAiIwDQYJKoZIhvcNAQEBBQADggIPADCCAgoCggIBAK2KmGlHOON/
Zbsp/9TNFpdxL2icL2HyO1Ml0RpYzly/viPaQu4v/qhp+/sTatz1dxojzBTCfZTl
CQRwi1gW3tR/Z/P7Ms+N6hVI/LXQRmy6XMTOuRQQOwQPjH5WJM+q6HZXOUroi8UA
nRriHvj0609Tq+yKvlyqu/5jieJG5duR82nV6RkJOkXCRh5otHfk7rVp5vSmn81F
hbsGZfm1is1+0ZSggrXDyJi7tXO+1f6qnCX23/L0WKt1NkAhZv14TqrlbvYBKy0p
fn3BO9TmKwAldp6YEHinMQkUqDuK66sK94V0usV1ehnoMrPzBiZxgSqj1Rlv9Oxt
SneqsAr77U4KxXAXdFg+i0zaiHplaiN8xduHli03fNnXKSNhQLV2a7UrIeGh01tL
cB0ENZtMZ1AobmPfTq6nO7cSybLPTlObtAl7D+wHZNTu2zEUVxKnYIp5Cg1D0hz8
mvkO41M12yV4vDa9u9h15mP0pHEz3MB1Kt9AtU5SVxHuXNtAt3KFgD3DaC3kXw/Z
uYu/26JHTSYTX7/XwCRshkkU7tL6PIGRD0uHB9p8XVncpv4ZUgYGwzPjXwoZEA0A
jVhwoe8xgjDDF2BE+I0edpdPvoZtoqs1JOUIzhkzHWhvH02VGhM5xP/jK/fL5j79
c52vNoHT31bqtFTyM4YmJfFLzBDFbLU/AgMBAAGjgYkwgYYwCQYDVR0TBAIwADAL
BgNVHQ8EBAMCAPEwLAYJYIZIAYb4QgENBB8WHU9wZW5TU0wgR2VuZXJhdGVkIENl
cnRpZmljYXRlMB0GA1UdDgQWBBQuapcbjj3Ow1gxjSDqkUt8UGY7WDAfBgNVHSME
GDAWgBRGM9xQhal0QTYUQNHkCOcazSQZ3DANBgkqhkiG9w0BAQsFAAOCAQEAJXpC
kgCIay9To93IzQ6XY+urcTRYAtVJJ1VcKKqfQUECWNPaVPAOE5A9B2nalb7coL0f
M7o/p/LTCbCZzauAutrEuBnMNO8I7HUll16wXNDowxKzzzTbKyUNdQZOFlsqgQ5G
za2bUiRNOSrsG0oJ0MGh1CSEjad+SrL5LVzgDCon9MJIpoS8egnG4T+cY30O4djf
qCKjzhcoIYkuoWt+tk+KN0nFmDS+jEVIEKYkx0fVtj7TnYwxcu7Bse/ZNXQYrU0l
4i4DTjjhec8ACInrH9OIMlw+xJCoDQ75q0aoax/OuoftVmo2so+R9JAeORuRQktM
g4z6NILIQXR4CNow9Q==
-----END CERTIFICATE-----
