Certificate:
    Data:
        Version: 3 (0x2)
        Serial Number: 4 (0x4)
        Signature Algorithm: sha256WithRSAEncryption
        Issuer: C=BA, ST=RS, O=ETF, CN=CA1/emailAddress=ca1@mail.com
        Validity
            Not Before: Aug 28 21:03:28 2022 GMT
            Not After : Aug 28 21:03:28 2023 GMT
        Subject: C=BA, ST=RS, O=Elektrotehnicki fakultet, OU=UNIBL, CN=vanjavanja
        Subject Public Key Info:
            Public Key Algorithm: rsaEncryption
                Public-Key: (4096 bit)
                Modulus:
                    00:97:79:a5:da:b0:0f:3b:cb:e7:1b:09:17:65:e8:
                    02:3e:21:02:78:41:59:c6:a7:da:be:de:34:af:12:
                    d2:6d:a8:f8:6c:cc:59:38:01:cb:b5:c9:4a:57:7e:
                    f9:75:16:38:6f:15:9d:cd:f5:8e:70:66:5e:97:05:
                    67:98:44:a9:9b:4c:d9:c6:72:eb:ad:95:74:8b:c6:
                    d3:0f:9a:62:f7:02:0e:82:c7:38:fb:2d:b6:0b:0e:
                    19:db:0b:64:04:b6:13:ee:7b:9e:bb:cf:c9:e0:b0:
                    51:83:cb:fd:62:ff:f3:cf:a7:1b:9d:0c:de:0c:f6:
                    55:e1:17:a5:0d:1a:a8:65:0d:40:ff:ef:e3:f3:64:
                    2c:87:4f:db:4c:97:a1:45:fd:84:9b:8c:04:10:e9:
                    ff:18:71:5d:f3:24:c6:6b:c4:12:94:f8:16:d6:a6:
                    4b:38:88:50:5c:1e:01:c0:f2:75:19:1e:17:9b:d3:
                    68:c9:07:0f:bb:a8:31:e7:37:70:5e:89:7f:c6:8b:
                    e5:7f:3e:b2:f7:64:b3:bf:26:9f:99:d8:b4:b1:c0:
                    6a:a0:fa:c9:3b:23:14:26:bb:0e:b1:25:68:6a:c7:
                    d4:93:77:e9:ea:7b:54:9f:8c:72:fc:9c:0f:84:9b:
                    9b:29:38:2e:a7:d1:2c:dc:a6:14:1a:0e:0f:6b:47:
                    11:0a:7d:a9:42:23:4c:69:c3:88:21:18:9b:e1:9b:
                    47:0b:7b:09:9c:85:d6:33:86:67:4a:10:85:f3:ee:
                    2d:97:2b:5e:20:42:4a:24:18:3e:7e:01:4b:fc:73:
                    fd:2e:29:30:82:89:e9:35:88:3b:cb:eb:88:13:18:
                    81:8f:c1:f4:d9:00:e0:63:16:64:02:85:8c:19:0d:
                    14:d2:1b:e3:48:66:c5:d3:9a:b0:1a:3d:87:4e:4c:
                    d6:96:6e:fb:be:a3:e2:6d:71:ba:0d:34:d0:6e:55:
                    31:58:f4:bf:10:1d:c8:89:1c:c1:7b:fd:d9:51:08:
                    ac:6b:e2:1f:56:78:ae:5d:49:1a:76:16:bf:e2:19:
                    16:eb:a9:57:c3:35:1a:a7:66:38:59:67:83:95:de:
                    36:17:8e:ba:0f:44:cf:4f:e1:14:08:23:11:fd:88:
                    14:9e:19:92:23:c2:f8:ad:03:22:fd:3b:5c:d8:96:
                    1b:3e:47:8a:52:bd:f9:5a:cb:51:e1:4e:b1:39:04:
                    cf:1d:b0:68:62:43:52:e1:50:b6:f6:8d:0c:7d:97:
                    8c:92:6c:c8:81:c1:ed:09:47:ce:a9:ef:5c:2e:41:
                    87:32:c5:ad:11:f4:3b:41:75:f3:1a:e4:ef:ff:f8:
                    39:2b:00:bd:0f:e5:e6:47:9a:af:04:95:61:08:61:
                    11:3e:2d
                Exponent: 65537 (0x10001)
        X509v3 extensions:
            X509v3 Basic Constraints: 
                CA:FALSE
            X509v3 Key Usage: 
                Digital Signature, Non Repudiation, Key Encipherment, Data Encipherment, Encipher Only
            Netscape Comment: 
                OpenSSL Generated Certificate
            X509v3 Subject Key Identifier: 
                51:8A:5E:27:B8:AA:70:72:EA:E4:5C:F0:29:E3:27:45:CF:C1:0A:64
            X509v3 Authority Key Identifier: 
                46:33:DC:50:85:A9:74:41:36:14:40:D1:E4:08:E7:1A:CD:24:19:DC
    Signature Algorithm: sha256WithRSAEncryption
    Signature Value:
        07:b6:bf:d2:24:89:99:f2:43:33:a5:13:00:a3:7c:ad:5c:16:
        c9:62:0b:26:ef:f8:f7:8d:5c:cc:22:cf:c9:8d:00:ac:bc:7e:
        be:2b:f6:8c:56:aa:27:f1:7b:87:72:b0:5e:a8:ca:fb:2f:98:
        55:5a:ba:b1:3d:cf:ee:55:ac:ae:c5:55:85:c7:45:06:94:87:
        73:68:81:75:03:5c:c2:a0:a7:c3:e7:7a:8c:55:21:1e:81:71:
        67:10:d4:ff:66:89:eb:ca:64:b2:89:8f:dc:8b:4d:94:60:30:
        80:24:ab:6c:27:56:c4:a6:68:a2:b5:5c:24:f5:f5:06:41:c0:
        3a:30:2d:cf:17:0c:cb:18:60:f7:89:4e:78:c0:65:24:8a:eb:
        a6:f3:13:7e:63:3c:1a:94:10:0c:1a:ee:17:1a:7d:24:1d:1b:
        e0:e3:5a:6c:4c:9c:b4:a3:58:f6:f3:5c:8b:f8:30:63:28:c1:
        c2:a7:2f:83:b6:83:74:51:67:cb:30:60:1c:7a:03:34:06:2f:
        80:b4:82:1b:9f:e7:1e:5f:05:c5:46:fc:27:30:71:e7:83:55:
        1c:7a:91:de:c4:95:84:1f:87:4a:c5:b5:ff:18:71:c7:77:1b:
        84:df:da:8b:e1:17:52:c4:44:fd:53:dd:f4:1b:e3:15:a5:c0:
        63:f0:fe:7d
-----BEGIN CERTIFICATE-----
MIIEujCCA6KgAwIBAgIBBDANBgkqhkiG9w0BAQsFADBTMQswCQYDVQQGEwJCQTEL
MAkGA1UECAwCUlMxDDAKBgNVBAoMA0VURjEMMAoGA1UEAwwDQ0ExMRswGQYJKoZI
hvcNAQkBFgxjYTFAbWFpbC5jb20wHhcNMjIwODI4MjEwMzI4WhcNMjMwODI4MjEw
MzI4WjBiMQswCQYDVQQGEwJCQTELMAkGA1UECAwCUlMxITAfBgNVBAoMGEVsZWt0
cm90ZWhuaWNraSBmYWt1bHRldDEOMAwGA1UECwwFVU5JQkwxEzARBgNVBAMMCnZh
bmphdmFuamEwggIiMA0GCSqGSIb3DQEBAQUAA4ICDwAwggIKAoICAQCXeaXasA87
y+cbCRdl6AI+IQJ4QVnGp9q+3jSvEtJtqPhszFk4Acu1yUpXfvl1FjhvFZ3N9Y5w
Zl6XBWeYRKmbTNnGcuutlXSLxtMPmmL3Ag6Cxzj7LbYLDhnbC2QEthPue567z8ng
sFGDy/1i//PPpxudDN4M9lXhF6UNGqhlDUD/7+PzZCyHT9tMl6FF/YSbjAQQ6f8Y
cV3zJMZrxBKU+BbWpks4iFBcHgHA8nUZHheb02jJBw+7qDHnN3BeiX/Gi+V/PrL3
ZLO/Jp+Z2LSxwGqg+sk7IxQmuw6xJWhqx9STd+nqe1SfjHL8nA+Em5spOC6n0Szc
phQaDg9rRxEKfalCI0xpw4ghGJvhm0cLewmchdYzhmdKEIXz7i2XK14gQkokGD5+
AUv8c/0uKTCCiek1iDvL64gTGIGPwfTZAOBjFmQChYwZDRTSG+NIZsXTmrAaPYdO
TNaWbvu+o+JtcboNNNBuVTFY9L8QHciJHMF7/dlRCKxr4h9WeK5dSRp2Fr/iGRbr
qVfDNRqnZjhZZ4OV3jYXjroPRM9P4RQIIxH9iBSeGZIjwvitAyL9O1zYlhs+R4pS
vflay1HhTrE5BM8dsGhiQ1LhULb2jQx9l4ySbMiBwe0JR86p71wuQYcyxa0R9DtB
dfMa5O//+DkrAL0P5eZHmq8ElWEIYRE+LQIDAQABo4GJMIGGMAkGA1UdEwQCMAAw
CwYDVR0PBAQDAgDxMCwGCWCGSAGG+EIBDQQfFh1PcGVuU1NMIEdlbmVyYXRlZCBD
ZXJ0aWZpY2F0ZTAdBgNVHQ4EFgQUUYpeJ7iqcHLq5FzwKeMnRc/BCmQwHwYDVR0j
BBgwFoAURjPcUIWpdEE2FEDR5AjnGs0kGdwwDQYJKoZIhvcNAQELBQADggEBAAe2
v9IkiZnyQzOlEwCjfK1cFsliCybv+PeNXMwiz8mNAKy8fr4r9oxWqifxe4dysF6o
yvsvmFVaurE9z+5VrK7FVYXHRQaUh3NogXUDXMKgp8PneoxVIR6BcWcQ1P9mievK
ZLKJj9yLTZRgMIAkq2wnVsSmaKK1XCT19QZBwDowLc8XDMsYYPeJTnjAZSSK66bz
E35jPBqUEAwa7hcafSQdG+DjWmxMnLSjWPbzXIv4MGMowcKnL4O2g3RRZ8swYBx6
AzQGL4C0ghuf5x5fBcVG/CcwceeDVRx6kd7ElYQfh0rFtf8Yccd3G4Tf2ovhF1LE
RP1T3fQb4xWlwGPw/n0=
-----END CERTIFICATE-----
