Certificate:
    Data:
        Version: 3 (0x2)
        Serial Number: 1 (0x1)
        Signature Algorithm: sha256WithRSAEncryption
        Issuer: C=BA, ST=Republika Srpska, L=Banja Luka, O=ETF, OU=UNIBL, CN=Root CA/emailAddress=root@mail.com
        Validity
            Not Before: Feb  5 13:32:28 2022 GMT
            Not After : Feb  5 13:32:28 2023 GMT
        Subject: C=BA, ST=Republika Srpska, O=ETF, OU=UNIBL, CN=CA1/emailAddress=ca1@mail.com
        Subject Public Key Info:
            Public Key Algorithm: rsaEncryption
                Public-Key: (2048 bit)
                Modulus:
                    00:e7:fc:88:71:35:74:5b:e3:fb:db:84:38:6e:37:
                    8f:5e:63:6d:f6:90:d1:66:05:c4:1a:d1:03:1e:ff:
                    c8:02:d5:26:79:29:80:96:fb:c0:eb:96:f0:31:f5:
                    57:26:23:7f:52:6a:0a:49:29:fd:a6:ca:8a:1f:ec:
                    26:58:30:0b:8b:e6:45:4f:71:f3:bc:8b:63:a3:0a:
                    a3:23:cc:cc:b8:a4:07:5a:9c:a5:90:91:55:f9:48:
                    1e:e5:f4:76:18:16:71:78:a7:ba:44:b3:f0:9b:44:
                    a3:b0:b6:97:c2:5f:07:db:c7:8f:80:d6:c3:f3:04:
                    7d:2c:7c:ec:5a:d0:fb:ee:ae:0b:8d:07:e3:88:07:
                    55:af:1c:6a:78:06:88:71:a0:6f:35:9c:52:9c:7d:
                    57:1a:a2:c4:45:49:cd:68:6c:28:ef:da:4d:5d:a7:
                    9e:f9:8f:8e:52:eb:86:d9:20:d2:bb:7c:cf:86:7e:
                    26:2e:d8:9e:18:f0:d8:ed:58:1f:6a:11:60:b4:de:
                    5e:23:26:0f:00:de:93:6a:22:82:50:4e:99:28:2f:
                    16:9f:b0:4d:5a:29:7f:32:34:b7:9a:ca:5b:a5:55:
                    24:7f:46:c2:d4:db:f2:ee:7c:f4:e7:1e:82:26:e5:
                    72:0e:e9:d9:d6:8a:0a:17:3a:47:a8:85:00:4c:86:
                    60:6d
                Exponent: 65537 (0x10001)
        X509v3 extensions:
            X509v3 Basic Constraints: 
                CA:TRUE
            X509v3 Key Usage: 
                Digital Signature, Non Repudiation, Key Encipherment, Data Encipherment, Encipher Only
            Netscape Comment: 
                OpenSSL Generated Certificate
            X509v3 Subject Key Identifier: 
                FF:80:2F:99:47:44:5A:AC:70:8C:77:3E:86:27:42:A8:DB:EF:05:1E
            X509v3 Authority Key Identifier: 
                2C:B0:AB:DD:3A:2A:C0:D2:DD:22:7E:1D:38:FD:6E:22:FD:93:87:F6
    Signature Algorithm: sha256WithRSAEncryption
    Signature Value:
        14:1b:e6:6c:38:53:46:92:9e:68:4c:aa:a4:87:03:14:98:54:
        a1:e1:fc:3b:d2:fe:4f:95:b2:51:b8:42:9f:0c:6d:94:c7:eb:
        a7:59:11:b2:64:db:6f:44:da:b3:b4:2c:d1:50:33:ec:78:1d:
        a5:ab:6b:70:28:bc:2a:c4:c8:52:1a:42:7e:0b:fd:cb:c2:3d:
        0a:dc:d1:38:49:d9:f5:37:e5:59:9a:c8:1a:d1:9d:99:2f:12:
        4f:47:d9:33:a3:72:7e:31:70:63:5e:2c:dd:51:dd:28:d4:5f:
        70:de:09:b7:c5:27:30:ea:4c:7d:3b:f1:3b:9a:51:05:4d:5f:
        e7:f2:15:3a:20:60:d6:67:38:4f:1e:18:24:c7:d3:1f:4c:56:
        2d:6a:86:10:4a:9f:90:8b:77:24:bc:e4:20:8a:c1:dc:c2:9e:
        b0:56:75:5f:7e:21:be:66:db:77:22:56:df:91:f0:c0:58:6e:
        5c:a8:5f:4a:4e:f7:cb:99:17:eb:8b:0b:94:75:e6:99:80:19:
        46:9b:ce:d9:41:40:55:8c:2b:e5:ef:00:aa:9e:2f:5a:77:90:
        a8:1f:ca:a3:db:84:2e:79:f8:c6:36:c4:a5:8b:ad:32:3c:d1:
        ca:25:6b:18:65:aa:3a:cc:93:d3:55:76:53:10:7a:2c:32:16:
        a9:92:84:9f
-----BEGIN CERTIFICATE-----
MIIEBTCCAu2gAwIBAgIBATANBgkqhkiG9w0BAQsFADCBizELMAkGA1UEBhMCQkEx
GTAXBgNVBAgMEFJlcHVibGlrYSBTcnBza2ExEzARBgNVBAcMCkJhbmphIEx1a2Ex
DDAKBgNVBAoMA0VURjEOMAwGA1UECwwFVU5JQkwxEDAOBgNVBAMMB1Jvb3QgQ0Ex
HDAaBgkqhkiG9w0BCQEWDXJvb3RAbWFpbC5jb20wHhcNMjIwMjA1MTMzMjI4WhcN
MjMwMjA1MTMzMjI4WjBxMQswCQYDVQQGEwJCQTEZMBcGA1UECAwQUmVwdWJsaWth
IFNycHNrYTEMMAoGA1UECgwDRVRGMQ4wDAYDVQQLDAVVTklCTDEMMAoGA1UEAwwD
Q0ExMRswGQYJKoZIhvcNAQkBFgxjYTFAbWFpbC5jb20wggEiMA0GCSqGSIb3DQEB
AQUAA4IBDwAwggEKAoIBAQDn/IhxNXRb4/vbhDhuN49eY232kNFmBcQa0QMe/8gC
1SZ5KYCW+8DrlvAx9VcmI39SagpJKf2myoof7CZYMAuL5kVPcfO8i2OjCqMjzMy4
pAdanKWQkVX5SB7l9HYYFnF4p7pEs/CbRKOwtpfCXwfbx4+A1sPzBH0sfOxa0Pvu
rguNB+OIB1WvHGp4BohxoG81nFKcfVcaosRFSc1obCjv2k1dp575j45S64bZINK7
fM+GfiYu2J4Y8NjtWB9qEWC03l4jJg8A3pNqIoJQTpkoLxafsE1aKX8yNLeaylul
VSR/RsLU2/LufPTnHoIm5XIO6dnWigoXOkeohQBMhmBtAgMBAAGjgYwwgYkwDAYD
VR0TBAUwAwEB/zALBgNVHQ8EBAMCAPEwLAYJYIZIAYb4QgENBB8WHU9wZW5TU0wg
R2VuZXJhdGVkIENlcnRpZmljYXRlMB0GA1UdDgQWBBT/gC+ZR0RarHCMdz6GJ0Ko
2+8FHjAfBgNVHSMEGDAWgBQssKvdOirA0t0ifh04/W4i/ZOH9jANBgkqhkiG9w0B
AQsFAAOCAQEAFBvmbDhTRpKeaEyqpIcDFJhUoeH8O9L+T5WyUbhCnwxtlMfrp1kR
smTbb0Tas7Qs0VAz7HgdpatrcCi8KsTIUhpCfgv9y8I9CtzROEnZ9TflWZrIGtGd
mS8ST0fZM6NyfjFwY14s3VHdKNRfcN4Jt8UnMOpMfTvxO5pRBU1f5/IVOiBg1mc4
Tx4YJMfTH0xWLWqGEEqfkIt3JLzkIIrB3MKesFZ1X34hvmbbdyJW35HwwFhuXKhf
Sk73y5kX64sLlHXmmYAZRpvO2UFAVYwr5e8Aqp4vWneQqB/Ko9uELnn4xjbEpYut
MjzRyiVrGGWqOsyT01V2UxB6LDIWqZKEnw==
-----END CERTIFICATE-----
