Certificate:
    Data:
        Version: 3 (0x2)
        Serial Number: 2 (0x2)
        Signature Algorithm: sha256WithRSAEncryption
        Issuer: C=BA, ST=Republika Srpska, L=Banja Luka, O=ETF, OU=UNIBL, CN=Root CA/emailAddress=root@mail.com
        Validity
            Not Before: Feb  5 13:33:17 2022 GMT
            Not After : Feb  5 13:33:17 2023 GMT
        Subject: C=BA, ST=Republika Srpska, O=ETF, OU=UNIBL, CN=CA2/emailAddress=ca2@mail.com
        Subject Public Key Info:
            Public Key Algorithm: rsaEncryption
                Public-Key: (2048 bit)
                Modulus:
                    00:ca:35:94:0c:d8:e2:e3:84:56:22:5a:24:02:62:
                    27:ad:4b:15:72:0a:3d:d2:41:78:0b:51:4a:62:c5:
                    78:6b:42:a6:31:f0:6c:4a:41:fe:76:e1:42:06:f4:
                    7f:f5:4d:e0:78:22:8a:de:ea:8f:88:4f:1b:a5:0b:
                    a2:e7:5a:d0:72:71:ef:36:25:74:d6:62:f4:a6:c2:
                    7b:80:60:55:35:1b:57:59:d0:ec:b6:60:3e:23:d4:
                    5f:d5:51:b4:fb:3b:cd:cb:ef:75:31:5e:ad:2d:4e:
                    27:d7:bf:37:da:ff:a2:9d:03:f6:94:15:61:1a:75:
                    b9:21:c7:8b:a1:73:d0:5d:68:ba:d1:b6:80:3f:f6:
                    7c:8e:5d:65:d1:0d:7a:26:7a:ee:55:7c:82:ee:5a:
                    f1:ef:05:72:18:83:ee:17:4f:ef:5e:18:d0:cb:12:
                    3a:f4:04:f8:4e:69:05:83:c6:fd:1b:6f:1f:ba:b9:
                    d9:29:df:53:e2:7a:e6:b1:3c:9c:16:23:7e:de:ba:
                    d2:65:cf:33:23:dc:27:df:81:3f:97:fd:9c:73:48:
                    0c:02:cc:3b:35:62:af:0e:2c:4b:47:d0:4b:09:24:
                    2b:f7:91:71:6d:c3:d5:4f:75:99:73:c0:45:df:f8:
                    15:de:5a:c6:e2:8c:9f:fc:92:07:cd:32:32:07:db:
                    34:a9
                Exponent: 65537 (0x10001)
        X509v3 extensions:
            X509v3 Basic Constraints: 
                CA:TRUE
            X509v3 Key Usage: 
                Digital Signature, Non Repudiation, Key Encipherment, Data Encipherment, Encipher Only
            Netscape Comment: 
                OpenSSL Generated Certificate
            X509v3 Subject Key Identifier: 
                4D:6B:EF:ED:D6:9B:88:4D:81:44:71:5F:52:88:3E:63:87:8B:34:6E
            X509v3 Authority Key Identifier: 
                2C:B0:AB:DD:3A:2A:C0:D2:DD:22:7E:1D:38:FD:6E:22:FD:93:87:F6
    Signature Algorithm: sha256WithRSAEncryption
    Signature Value:
        0d:44:a6:1b:6c:08:1a:5c:cf:ed:3f:ee:dc:04:99:e4:ab:07:
        30:62:3b:bc:c2:f7:da:52:4d:0e:0f:e8:67:b6:fb:c6:81:b7:
        30:07:39:a3:39:4c:b1:31:07:e6:8c:b1:f3:16:f9:eb:32:54:
        4b:6d:45:80:b1:33:f5:d3:ca:02:fc:6c:3c:47:b0:7b:5d:76:
        4d:1f:20:a2:ce:dd:9e:48:61:d9:1f:43:60:6c:93:dc:ca:c2:
        b7:f5:f3:c5:ba:c3:17:c6:fa:19:b2:ba:f0:46:eb:74:a4:2f:
        43:49:fd:69:a5:39:77:7e:cf:e0:f1:eb:70:75:76:54:39:2a:
        ca:9a:b6:db:85:e9:0d:07:93:64:32:b1:fe:b7:c1:d5:b2:94:
        fc:28:58:db:b8:25:aa:aa:ba:fe:c9:5f:48:ef:2f:0e:08:20:
        d0:2b:2b:9b:fa:f6:52:0a:8c:83:68:6d:f5:36:0f:41:bd:82:
        e3:f3:e7:21:e7:f9:3f:d7:19:ea:26:08:22:be:28:e9:d1:65:
        3d:0d:a4:11:fa:2b:b4:5c:b9:4b:c0:a2:4e:62:e7:3e:73:e2:
        01:28:42:ff:44:fe:09:6d:df:30:19:f3:b5:80:89:5c:2c:31:
        a4:e1:4f:93:5a:ec:dc:87:40:e4:6b:00:29:c0:4c:3c:28:d4:
        a8:76:66:1d
-----BEGIN CERTIFICATE-----
MIIEBTCCAu2gAwIBAgIBAjANBgkqhkiG9w0BAQsFADCBizELMAkGA1UEBhMCQkEx
GTAXBgNVBAgMEFJlcHVibGlrYSBTcnBza2ExEzARBgNVBAcMCkJhbmphIEx1a2Ex
DDAKBgNVBAoMA0VURjEOMAwGA1UECwwFVU5JQkwxEDAOBgNVBAMMB1Jvb3QgQ0Ex
HDAaBgkqhkiG9w0BCQEWDXJvb3RAbWFpbC5jb20wHhcNMjIwMjA1MTMzMzE3WhcN
MjMwMjA1MTMzMzE3WjBxMQswCQYDVQQGEwJCQTEZMBcGA1UECAwQUmVwdWJsaWth
IFNycHNrYTEMMAoGA1UECgwDRVRGMQ4wDAYDVQQLDAVVTklCTDEMMAoGA1UEAwwD
Q0EyMRswGQYJKoZIhvcNAQkBFgxjYTJAbWFpbC5jb20wggEiMA0GCSqGSIb3DQEB
AQUAA4IBDwAwggEKAoIBAQDKNZQM2OLjhFYiWiQCYietSxVyCj3SQXgLUUpixXhr
QqYx8GxKQf524UIG9H/1TeB4Iore6o+ITxulC6LnWtByce82JXTWYvSmwnuAYFU1
G1dZ0Oy2YD4j1F/VUbT7O83L73UxXq0tTifXvzfa/6KdA/aUFWEadbkhx4uhc9Bd
aLrRtoA/9nyOXWXRDXomeu5VfILuWvHvBXIYg+4XT+9eGNDLEjr0BPhOaQWDxv0b
bx+6udkp31PieuaxPJwWI37eutJlzzMj3CffgT+X/ZxzSAwCzDs1Yq8OLEtH0EsJ
JCv3kXFtw9VPdZlzwEXf+BXeWsbijJ/8kgfNMjIH2zSpAgMBAAGjgYwwgYkwDAYD
VR0TBAUwAwEB/zALBgNVHQ8EBAMCAPEwLAYJYIZIAYb4QgENBB8WHU9wZW5TU0wg
R2VuZXJhdGVkIENlcnRpZmljYXRlMB0GA1UdDgQWBBRNa+/t1puITYFEcV9SiD5j
h4s0bjAfBgNVHSMEGDAWgBQssKvdOirA0t0ifh04/W4i/ZOH9jANBgkqhkiG9w0B
AQsFAAOCAQEADUSmG2wIGlzP7T/u3ASZ5KsHMGI7vML32lJNDg/oZ7b7xoG3MAc5
ozlMsTEH5oyx8xb56zJUS21FgLEz9dPKAvxsPEewe112TR8gos7dnkhh2R9DYGyT
3MrCt/XzxbrDF8b6GbK68EbrdKQvQ0n9aaU5d37P4PHrcHV2VDkqypq224XpDQeT
ZDKx/rfB1bKU/ChY27glqqq6/slfSO8vDggg0Csrm/r2UgqMg2ht9TYPQb2C4/Pn
Ief5P9cZ6iYIIr4o6dFlPQ2kEfortFy5S8CiTmLnPnPiAShC/0T+CW3fMBnztYCJ
XCwxpOFPk1rs3IdA5GsAKcBMPCjUqHZmHQ==
-----END CERTIFICATE-----
