Certificate:
    Data:
        Version: 3 (0x2)
        Serial Number: 2 (0x2)
        Signature Algorithm: sha256WithRSAEncryption
        Issuer: C=BA, ST=RS, O=ETF, CN=ROOT_CA/emailAddress=rootca@mail.com
        Validity
            Not Before: Aug 27 13:14:42 2022 GMT
            Not After : Aug 24 13:14:42 2032 GMT
        Subject: C=BA, ST=RS, O=ETF, CN=CA2/emailAddress=ca2@mail.com
        Subject Public Key Info:
            Public Key Algorithm: rsaEncryption
                Public-Key: (2048 bit)
                Modulus:
                    00:a7:59:14:2d:5c:51:e7:db:ec:b9:99:a6:d7:da:
                    dc:82:14:6e:d7:b2:fa:5a:5b:b1:b3:2f:ff:da:f2:
                    f4:8d:8d:11:b4:4b:75:ed:cf:65:02:35:80:9a:6e:
                    d1:48:aa:59:a3:4f:d8:5e:d8:55:01:b5:f1:14:4c:
                    0f:e6:e1:0c:79:9f:ff:37:d3:6e:a5:da:29:20:3e:
                    c1:3b:8e:04:52:70:0f:d6:41:b6:b0:b9:fe:5b:3b:
                    c1:81:fb:d9:23:0e:7e:0d:c4:ba:85:cb:9b:44:a1:
                    4c:37:35:be:05:f7:ac:b4:53:ea:ba:67:a0:51:3c:
                    f0:82:22:8a:37:17:a5:bd:b5:25:e1:06:5b:20:0d:
                    d8:46:34:a4:e8:ab:3b:59:03:38:d2:63:54:dc:9e:
                    93:58:51:71:62:b4:16:a8:1e:49:4f:09:63:c5:23:
                    6c:30:d7:e9:6d:62:bf:db:a4:2a:d0:fe:16:25:9a:
                    6d:0c:61:c8:3a:b0:8a:83:6e:9d:fe:28:a1:32:84:
                    b2:20:d9:66:40:82:92:71:e8:7d:a4:51:53:6c:da:
                    6f:91:fa:f3:ae:95:22:2d:4b:4f:13:42:17:89:4d:
                    28:bd:6e:2c:11:e9:82:a1:e9:0e:77:dd:ed:8d:2a:
                    7e:39:a3:82:61:07:20:d4:6b:40:a4:0f:4b:cc:ae:
                    be:dd
                Exponent: 65537 (0x10001)
        X509v3 extensions:
            X509v3 Basic Constraints: 
                CA:TRUE
            X509v3 Key Usage: 
                Digital Signature, Non Repudiation, Key Encipherment, Data Encipherment, Encipher Only
            Netscape Comment: 
                OpenSSL Generated Certificate
            X509v3 Subject Key Identifier: 
                37:43:20:1B:BB:63:91:9B:D3:10:69:59:83:6F:34:9E:CF:D8:80:8E
            X509v3 Authority Key Identifier: 
                05:E4:1D:07:4D:BC:E4:A2:1A:F8:95:43:70:64:69:00:F5:0E:3D:6C
    Signature Algorithm: sha256WithRSAEncryption
    Signature Value:
        4f:5e:2d:6b:1a:52:f8:e6:12:f3:56:aa:51:fb:42:a4:84:38:
        bc:ae:08:92:df:a4:84:77:18:f6:a0:75:b8:07:b1:82:cd:77:
        11:49:63:48:24:bd:e8:0f:87:b1:81:3d:50:0e:d8:d4:a4:f8:
        50:2e:46:8c:1f:56:8c:5c:6d:ea:56:0b:a5:f6:eb:fd:76:d5:
        0c:72:09:32:3c:e6:8c:13:c1:44:92:50:66:1f:f9:dd:6b:8b:
        b3:a3:e2:e3:da:ad:f3:75:50:0d:4c:d0:b2:11:6e:37:e8:b4:
        33:81:b7:f9:6d:b9:40:cb:d0:86:d1:76:6c:0d:34:e5:1f:1a:
        34:31:2a:e1:01:ba:f5:1f:96:d6:e9:99:07:6e:d1:0e:67:8f:
        b6:ad:62:28:de:6b:51:54:dd:4a:52:1f:ee:a6:44:b1:3f:db:
        8b:8d:85:a3:42:c4:ce:f0:0d:6b:50:0e:2d:9d:b7:2a:1b:e8:
        99:6a:d6:0b:c9:47:05:86:c9:84:0a:e0:02:7f:b9:50:72:ac:
        0c:b2:3d:24:bb:26:24:3e:fb:fe:02:74:9d:cb:d4:d2:7a:b7:
        09:47:6f:21:6d:47:52:04:c5:5c:b8:28:1d:9b:e8:b6:93:c0:
        2e:97:05:00:6b:df:d6:ca:5e:0b:80:d5:12:fa:cf:46:bf:06:
        ea:f6:4f:11
-----BEGIN CERTIFICATE-----
MIIDtTCCAp2gAwIBAgIBAjANBgkqhkiG9w0BAQsFADBaMQswCQYDVQQGEwJCQTEL
MAkGA1UECAwCUlMxDDAKBgNVBAoMA0VURjEQMA4GA1UEAwwHUk9PVF9DQTEeMBwG
CSqGSIb3DQEJARYPcm9vdGNhQG1haWwuY29tMB4XDTIyMDgyNzEzMTQ0MloXDTMy
MDgyNDEzMTQ0MlowUzELMAkGA1UEBhMCQkExCzAJBgNVBAgMAlJTMQwwCgYDVQQK
DANFVEYxDDAKBgNVBAMMA0NBMjEbMBkGCSqGSIb3DQEJARYMY2EyQG1haWwuY29t
MIIBIjANBgkqhkiG9w0BAQEFAAOCAQ8AMIIBCgKCAQEAp1kULVxR59vsuZmm19rc
ghRu17L6Wluxsy//2vL0jY0RtEt17c9lAjWAmm7RSKpZo0/YXthVAbXxFEwP5uEM
eZ//N9NupdopID7BO44EUnAP1kG2sLn+WzvBgfvZIw5+DcS6hcubRKFMNzW+Bfes
tFPqumegUTzwgiKKNxelvbUl4QZbIA3YRjSk6Ks7WQM40mNU3J6TWFFxYrQWqB5J
TwljxSNsMNfpbWK/26Qq0P4WJZptDGHIOrCKg26d/iihMoSyINlmQIKSceh9pFFT
bNpvkfrzrpUiLUtPE0IXiU0ovW4sEemCoekOd93tjSp+OaOCYQcg1GtApA9LzK6+
3QIDAQABo4GMMIGJMAwGA1UdEwQFMAMBAf8wCwYDVR0PBAQDAgDxMCwGCWCGSAGG
+EIBDQQfFh1PcGVuU1NMIEdlbmVyYXRlZCBDZXJ0aWZpY2F0ZTAdBgNVHQ4EFgQU
N0MgG7tjkZvTEGlZg280ns/YgI4wHwYDVR0jBBgwFoAUBeQdB0285KIa+JVDcGRp
APUOPWwwDQYJKoZIhvcNAQELBQADggEBAE9eLWsaUvjmEvNWqlH7QqSEOLyuCJLf
pIR3GPagdbgHsYLNdxFJY0gkvegPh7GBPVAO2NSk+FAuRowfVoxcbepWC6X26/12
1QxyCTI85owTwUSSUGYf+d1ri7Oj4uParfN1UA1M0LIRbjfotDOBt/ltuUDL0IbR
dmwNNOUfGjQxKuEBuvUfltbpmQdu0Q5nj7atYijea1FU3UpSH+6mRLE/24uNhaNC
xM7wDWtQDi2dtyob6Jlq1gvJRwWGyYQK4AJ/uVByrAyyPSS7JiQ++/4CdJ3L1NJ6
twlHbyFtR1IExVy4KB2b6LaTwC6XBQBr39bKXguA1RL6z0a/Bur2TxE=
-----END CERTIFICATE-----
