Certificate:
    Data:
        Version: 3 (0x2)
        Serial Number: 1 (0x1)
        Signature Algorithm: sha256WithRSAEncryption
        Issuer: C=BA, ST=RS, O=ETF, CN=ROOT_CA/emailAddress=rootca@mail.com
        Validity
            Not Before: Aug 27 13:13:46 2022 GMT
            Not After : Aug 24 13:13:46 2032 GMT
        Subject: C=BA, ST=RS, O=ETF, CN=CA1/emailAddress=ca1@mail.com
        Subject Public Key Info:
            Public Key Algorithm: rsaEncryption
                Public-Key: (2048 bit)
                Modulus:
                    00:ca:7c:bd:c3:75:79:c8:36:1b:ef:4a:9b:0e:f2:
                    65:11:f9:84:0b:b9:a7:88:01:52:5c:ab:25:31:b4:
                    0e:6f:c3:9b:39:94:ff:ca:f0:dc:fa:10:1c:a7:ca:
                    ac:5f:41:08:c7:7f:94:8d:50:c5:ed:30:89:d2:10:
                    c2:0f:74:74:03:01:7c:a8:6d:2c:80:01:f2:cd:93:
                    c4:b2:7f:ab:e3:c9:fa:11:91:d6:fe:68:4d:92:fa:
                    a8:73:31:39:fc:10:85:d8:39:b6:95:47:01:1a:9d:
                    bf:7a:73:68:97:29:e9:f8:b9:8c:da:eb:9a:95:5c:
                    17:01:cf:90:05:8b:22:81:73:a6:cc:14:c8:75:e4:
                    c0:f4:44:b1:6f:0f:5e:fe:97:ae:33:92:42:57:fe:
                    f5:02:d9:82:de:ec:c4:f5:18:a0:e3:50:59:1e:15:
                    19:2c:0b:bc:c2:60:ff:04:a1:ca:69:d0:40:58:b8:
                    5a:8e:53:02:42:66:60:c3:88:a4:8c:fb:3c:2f:73:
                    16:46:7c:71:41:24:c9:6c:2a:24:b7:f3:b9:76:72:
                    dc:28:4d:f9:66:ff:3e:fc:fe:63:f3:93:4a:b7:16:
                    27:fb:0f:5c:c7:dc:6b:a2:b5:6c:87:8a:ef:59:ff:
                    9f:1f:45:28:e9:9a:7a:84:fa:e7:c4:f0:ff:b5:a9:
                    bb:6b
                Exponent: 65537 (0x10001)
        X509v3 extensions:
            X509v3 Basic Constraints: 
                CA:TRUE
            X509v3 Key Usage: 
                Digital Signature, Non Repudiation, Key Encipherment, Data Encipherment, Encipher Only
            Netscape Comment: 
                OpenSSL Generated Certificate
            X509v3 Subject Key Identifier: 
                46:33:DC:50:85:A9:74:41:36:14:40:D1:E4:08:E7:1A:CD:24:19:DC
            X509v3 Authority Key Identifier: 
                05:E4:1D:07:4D:BC:E4:A2:1A:F8:95:43:70:64:69:00:F5:0E:3D:6C
    Signature Algorithm: sha256WithRSAEncryption
    Signature Value:
        36:c7:c7:3b:44:21:bb:cc:5d:ec:14:c8:4d:78:2c:2b:d3:3e:
        f6:bb:7b:e3:c2:e6:01:27:81:23:95:44:dc:99:9b:76:a3:44:
        ad:2b:5a:76:72:da:3c:54:db:3b:33:8f:54:6a:bd:51:b6:48:
        1c:45:19:fa:3b:48:d8:90:34:ee:72:3a:0c:4e:0a:c6:5a:65:
        96:19:45:55:e2:8a:a6:87:70:d1:6a:f3:86:cd:d3:94:0c:92:
        f1:d0:51:67:42:b0:30:e7:63:f5:ee:c8:bf:7b:47:9e:68:02:
        cb:52:18:39:97:aa:c7:59:4f:02:b2:68:d8:30:7d:50:f1:0a:
        f4:8a:93:87:7a:79:73:b0:5e:fa:51:b5:63:10:51:71:aa:7b:
        f1:d3:35:71:76:92:1c:34:b7:86:3f:20:c5:24:a8:22:6f:a6:
        93:46:df:43:09:40:8d:21:a2:14:d5:a1:7a:9d:ad:e0:68:bf:
        f7:7a:bf:b5:f8:74:6c:d1:48:15:0f:16:13:d0:b0:da:97:a7:
        3c:81:5c:f8:87:f7:60:ee:85:4e:05:2c:e7:57:db:29:fe:36:
        21:9f:6b:92:d7:38:e0:de:cd:9c:1f:4e:36:a9:a5:b9:66:d8:
        a1:67:65:0a:24:1d:36:78:7d:8e:76:ae:7e:a0:5e:aa:71:06:
        65:91:d7:39
-----BEGIN CERTIFICATE-----
MIIDtTCCAp2gAwIBAgIBATANBgkqhkiG9w0BAQsFADBaMQswCQYDVQQGEwJCQTEL
MAkGA1UECAwCUlMxDDAKBgNVBAoMA0VURjEQMA4GA1UEAwwHUk9PVF9DQTEeMBwG
CSqGSIb3DQEJARYPcm9vdGNhQG1haWwuY29tMB4XDTIyMDgyNzEzMTM0NloXDTMy
MDgyNDEzMTM0NlowUzELMAkGA1UEBhMCQkExCzAJBgNVBAgMAlJTMQwwCgYDVQQK
DANFVEYxDDAKBgNVBAMMA0NBMTEbMBkGCSqGSIb3DQEJARYMY2ExQG1haWwuY29t
MIIBIjANBgkqhkiG9w0BAQEFAAOCAQ8AMIIBCgKCAQEAyny9w3V5yDYb70qbDvJl
EfmEC7mniAFSXKslMbQOb8ObOZT/yvDc+hAcp8qsX0EIx3+UjVDF7TCJ0hDCD3R0
AwF8qG0sgAHyzZPEsn+r48n6EZHW/mhNkvqoczE5/BCF2Dm2lUcBGp2/enNolynp
+LmM2uualVwXAc+QBYsigXOmzBTIdeTA9ESxbw9e/peuM5JCV/71AtmC3uzE9Rig
41BZHhUZLAu8wmD/BKHKadBAWLhajlMCQmZgw4ikjPs8L3MWRnxxQSTJbCokt/O5
dnLcKE35Zv8+/P5j85NKtxYn+w9cx9xrorVsh4rvWf+fH0Uo6Zp6hPrnxPD/tam7
awIDAQABo4GMMIGJMAwGA1UdEwQFMAMBAf8wCwYDVR0PBAQDAgDxMCwGCWCGSAGG
+EIBDQQfFh1PcGVuU1NMIEdlbmVyYXRlZCBDZXJ0aWZpY2F0ZTAdBgNVHQ4EFgQU
RjPcUIWpdEE2FEDR5AjnGs0kGdwwHwYDVR0jBBgwFoAUBeQdB0285KIa+JVDcGRp
APUOPWwwDQYJKoZIhvcNAQELBQADggEBADbHxztEIbvMXewUyE14LCvTPva7e+PC
5gEngSOVRNyZm3ajRK0rWnZy2jxU2zszj1RqvVG2SBxFGfo7SNiQNO5yOgxOCsZa
ZZYZRVXiiqaHcNFq84bN05QMkvHQUWdCsDDnY/XuyL97R55oAstSGDmXqsdZTwKy
aNgwfVDxCvSKk4d6eXOwXvpRtWMQUXGqe/HTNXF2khw0t4Y/IMUkqCJvppNG30MJ
QI0hohTVoXqdreBov/d6v7X4dGzRSBUPFhPQsNqXpzyBXPiH92DuhU4FLOdX2yn+
NiGfa5LXOODezZwfTjappblm2KFnZQokHTZ4fY52rn6gXqpxBmWR1zk=
-----END CERTIFICATE-----
